(lp0
S"(dp0\nI1\n(i__main__\nPlayer\np1\n(dp2\nS'publicName'\np3\nS''\np4\nsS'name'\np5\nI1\nsS'delegateCount'\np6\nI175\nsS'positions'\np7\n(lp8\nI0\naI0\naI0\naI0\naI0\nasS'resources'\np9\n(lp10\nI80\naF118872.0\nasS'momentum'\np11\nF72.25\nsbsI2\n(i__main__\nPlayer\np12\n(dp13\ng3\ng4\nsg5\nI2\nsg6\nI99\nsg7\n(lp14\nI0\naI0\naI0\naI0\naI0\nasg9\n(lp15\nI80\naF222990.0\nasg11\nF42.25\nsbsI3\n(i__main__\nPlayer\np16\n(dp17\ng3\ng4\nsg5\nI3\nsg6\nI104\nsg7\n(lp18\nI0\naI0\naI0\naI0\naI0\nasg9\n(lp19\nI80\naF235651.0\nasg11\nF87.5\nsbs."
p1
aS'(dp0\nS\'Mississippi\'\np1\n(i__main__\nState\np2\n(dp3\nS\'organizations\'\np4\n(lp5\nI0\naI1\naI1\nasS\'pollingAverage\'\np6\n(lp7\nF0.0\naF11.8\naF88.2\nasS\'name\'\np8\ng1\nsS\'opinions\'\np9\n(lp10\nsS\'positions\'\np11\n(lp12\nS\'-4\'\np13\naS\'-4\'\np14\naS\'-4\'\np15\naS\'-4\'\np16\naS\'-4\\n\'\np17\nasS\'support\'\np18\n(lp19\nF0.0\naF24.0\naF180.0\nasS\'districts\'\np20\n(lp21\n(i__main__\nDistrict\np22\n(dp23\ng9\n(lp24\nsg6\n(lp25\nF0.0\naF1.7\naF12.8\nasg8\nS\'1st\'\np26\nsg18\n(lp27\nF0.0\naF2.0\naF15.0\nasS\'adsThisTurn\'\np28\n(lp29\nI0\naI0\naI0\nasS\'state\'\np30\nS\'Mississippi\'\np31\nsS\'campaigningThisTurn\'\np32\n(lp33\nI0\naI0\naI0\nasS\'population\'\np34\nI12\nsbasbsS\'Oklahoma\'\np35\n(i__main__\nState\np36\n(dp37\ng4\n(lp38\nI2\naI2\naI1\nasg6\n(lp39\nF8.9\naF57.9\naF33.2\nasg8\ng35\nsg9\n(lp40\nsg11\n(lp41\nS\'-4\'\np42\naS\'-4\'\np43\naS\'-4\'\np44\naS\'-4\'\np45\naS\'-4\\n\'\np46\nasg18\n(lp47\nF90.0\naF540.0\naF240.0\nasg20\n(lp48\n(i__main__\nDistrict\np49\n(dp50\ng9\n(lp51\nsg6\n(lp52\nF3.0\naF19.7\naF11.3\nasg8\nS\'1st\'\np53\nsg18\n(lp54\nF6.0\naF36.0\naF16.0\nasg28\n(lp55\nI0\naI0\naI0\nasg30\nS\'Oklahoma\'\np56\nsg32\n(lp57\nI0\naI0\naI0\nasg34\nI15\nsbasbsS\'Wyoming\'\np58\n(i__main__\nState\np59\n(dp60\ng4\n(lp61\nI1\naI0\naI0\nasg6\n(lp62\nF100.0\naF0.0\naF0.0\nasg8\ng58\nsg9\n(lp63\nsg11\n(lp64\nS\'10\'\np65\naS\'10\'\np66\naS\'10\'\np67\naS\'10\'\np68\naS\'10\\n\'\np69\nasg18\n(lp70\nF3.0\naF0.0\naF0.0\nasg20\n(lp71\n(i__main__\nDistrict\np72\n(dp73\ng9\n(lp74\nsg6\n(lp75\nF0.9\naF0.0\naF0.0\nasg8\nS\'1st\'\np76\nsg18\n(lp77\nF1.0\naF0.0\naF0.0\nasg28\n(lp78\nI0\naI0\naI0\nasg30\nS\'Wyoming\'\np79\nsg32\n(lp80\nI0\naI0\naI0\nasg34\nI3\nsbasbsS\'Minnesota\'\np81\n(i__main__\nState\np82\n(dp83\ng4\n(lp84\nI3\naI2\naI0\nasg6\n(lp85\nF78.1\naF21.9\naF0.0\nasg8\ng81\nsg9\n(lp86\nsg11\n(lp87\nS\'-3\'\np88\naS\'-3\'\np89\naS\'-3\'\np90\naS\'-3\'\np91\naS\'-3\\n\'\np92\nasg18\n(lp93\nF768.0\naF636.0\naF0.0\nasg20\n(lp94\n(i__main__\nDistrict\np95\n(dp96\ng9\n(lp97\nsg6\n(lp98\nF30.7\naF6.0\naF0.0\nasg8\nS\'Twin Cities\'\np99\nsg18\n(lp100\nF44.0\naF39.0\naF0.0\nasg28\n(lp101\nI0\naI0\naI0\nasg30\nS\'Minnesota\'\np102\nsg32\n(lp103\nI0\naI0\naI0\nasg34\nI12\nsba(i__main__\nDistrict\np104\n(dp105\ng9\n(lp106\nsg6\n(lp107\nF14.1\naF6.6\naF0.0\nasg8\nS\'Southern Minnesota\'\np108\nsg18\n(lp109\nF20.0\naF18.0\naF0.0\nasg28\n(lp110\nI0\naI0\naI0\nasg30\nS\'Minnesota\'\np111\nsg32\n(lp112\nI0\naI0\naI0\nasg34\nI6\nsba(i__main__\nDistrict\np113\n(dp114\ng9\n(lp115\nsg6\n(lp116\nF14.1\naF6.6\naF0.0\nasg8\nS\'Northern Minnesota\'\np117\nsg18\n(lp118\nF20.0\naF10.0\naF0.0\nasg28\n(lp119\nI0\naI0\naI0\nasg30\nS\'Minnesota\'\np120\nsg32\n(lp121\nI0\naI0\naI0\nasg34\nI6\nsbasbsS\'Illinois\'\np122\n(i__main__\nState\np123\n(dp124\ng4\n(lp125\nI3\naI0\naI0\nasg6\n(lp126\nF100.0\naF0.0\naF0.0\nasg8\ng122\nsg9\n(lp127\nsg11\n(lp128\nS\'7\'\np129\nag129\nag129\nag129\naS\'7\\n\'\np130\nasg18\n(lp131\nF750.0\naF0.0\naF0.0\nasg20\n(lp132\n(i__main__\nDistrict\np133\n(dp134\ng9\n(lp135\nsg6\n(lp136\nF7.2\naF0.0\naF0.0\nasg8\nS\'Chicago\'\np137\nsg18\n(lp138\nF8.0\naF0.0\naF0.0\nasg28\n(lp139\nI0\naI0\naI0\nasg30\nS\'Illinois\'\np140\nsg32\n(lp141\nI0\naI0\naI0\nasg34\nI12\nsba(i__main__\nDistrict\np142\n(dp143\ng9\n(lp144\nsg6\n(lp145\nF20.8\naF0.0\naF0.0\nasg8\nS\'Chicago Suburbs\'\np146\nsg18\n(lp147\nF25.0\naF0.0\naF0.0\nasg28\n(lp148\nI0\naI0\naI0\nasg30\nS\'Illinois\'\np149\nsg32\n(lp150\nI0\naI0\naI0\nasg34\nI24\nsba(i__main__\nDistrict\np151\n(dp152\ng9\n(lp153\nsg6\n(lp154\nF2.8\naF0.0\naF0.0\nasg8\nS\'Southern Illinois\'\np155\nsg18\n(lp156\nF3.0\naF0.0\naF0.0\nasg28\n(lp157\nI0\naI0\naI0\nasg30\nS\'Illinois\'\np158\nsg32\n(lp159\nI0\naI0\naI0\nasg34\nI9\nsba(i__main__\nDistrict\np160\n(dp161\ng9\n(lp162\nsg6\n(lp163\nF2.8\naF0.0\naF0.0\nasg8\nS\'Northern Illinois\'\np164\nsg18\n(lp165\nF3.0\naF0.0\naF0.0\nasg28\n(lp166\nI0\naI0\naI0\nasg30\nS\'Illinois\'\np167\nsg32\n(lp168\nI0\naI0\naI0\nasg34\nI9\nsbasbsS\'Georgia\'\np169\n(i__main__\nState\np170\n(dp171\ng4\n(lp172\nI3\naI2\naI0\nasg6\n(lp173\nF47.9\naF52.1\naF0.0\nasg8\ng169\nsg9\n(lp174\nsg11\n(lp175\nS\'10\'\np176\naS\'10\'\np177\naS\'10\'\np178\naS\'10\'\np179\naS\'10\\n\'\np180\nasg18\n(lp181\nF1464.0\naF1410.0\naF0.0\nasg20\n(lp182\n(i__main__\nDistrict\np183\n(dp184\ng9\n(lp185\nsg6\n(lp186\nF18.5\naF29.3\naF0.0\nasg8\nS\'Atlanta\'\np187\nsg18\n(lp188\nF52.0\naF63.0\naF0.0\nasg28\n(lp189\nI0\naI0\naI0\nasg30\nS\'Georgia\'\np190\nsg32\n(lp191\nI0\naI0\naI0\nasg34\nI18\nsba(i__main__\nDistrict\np192\n(dp193\ng9\n(lp194\nsg6\n(lp195\nF8.0\naF1.8\naF0.0\nasg8\nS\'Northern Georgia\'\np196\nsg18\n(lp197\nF22.0\naF12.0\naF0.0\nasg28\n(lp198\nI0\naI0\naI0\nasg30\nS\'Georgia\'\np199\nsg32\n(lp200\nI0\naI0\naI0\nasg34\nI12\nsba(i__main__\nDistrict\np201\n(dp202\ng9\n(lp203\nsg6\n(lp204\nF8.0\naF1.8\naF0.0\nasg8\nS\'Southern Georgia\'\np205\nsg18\n(lp206\nF22.0\naF11.0\naF0.0\nasg28\n(lp207\nI0\naI0\naI0\nasg30\nS\'Georgia\'\np208\nsg32\n(lp209\nI0\naI0\naI0\nasg34\nI12\nsbasbsS\'Arkansas\'\np210\n(i__main__\nState\np211\n(dp212\ng4\n(lp213\nI0\naI2\naI1\nasg6\n(lp214\nF0.0\naF52.0\naF48.0\nasg8\ng210\nsg9\n(lp215\nsg11\n(lp216\nS\'4\'\np217\nag217\nag217\nag217\naS\'4\\n\'\np218\nasg18\n(lp219\nF0.0\naF348.0\naF672.0\nasg20\n(lp220\n(i__main__\nDistrict\np221\n(dp222\ng9\n(lp223\nsg6\n(lp224\nF0.0\naF19.8\naF18.3\nasg8\nS\'1st\'\np225\nsg18\n(lp226\nF0.0\naF29.0\naF56.0\nasg28\n(lp227\nI0\naI0\naI0\nasg30\nS\'Arkansas\'\np228\nsg32\n(lp229\nI0\naI0\naI0\nasg34\nI12\nsbasbsS\'New Mexico\'\np230\n(i__main__\nState\np231\n(dp232\ng4\n(lp233\nI0\naI0\naI0\nasg6\n(lp234\nF0.0\naF0.0\naF0.0\nasg8\ng230\nsg9\n(lp235\nsg11\n(lp236\nS\'-9\'\np237\naS\'-9\'\np238\naS\'-9\'\np239\naS\'-9\'\np240\naS\'-9\\n\'\np241\nasg18\n(lp242\nF0.0\naF0.0\naF0.0\nasg20\n(lp243\n(i__main__\nDistrict\np244\n(dp245\ng9\n(lp246\nsg6\n(lp247\nF0.0\naF0.0\naF0.0\nasg8\nS\'1st\'\np248\nsg18\n(lp249\nF0.0\naF0.0\naF0.0\nasg28\n(lp250\nI0\naI0\naI0\nasg30\nS\'New Mexico\'\np251\nsg32\n(lp252\nI0\naI0\naI0\nasg34\nI9\nsbasbsS\'Ohio\'\np253\n(i__main__\nState\np254\n(dp255\ng4\n(lp256\nI0\naI0\naI0\nasg6\n(lp257\nF0.0\naF0.0\naF0.0\nasg8\ng253\nsg9\n(lp258\nsg11\n(lp259\nS\'-5\'\np260\naS\'-5\'\np261\naS\'-5\'\np262\naS\'-5\'\np263\naS\'-5\\n\'\np264\nasg18\n(lp265\nF0.0\naF0.0\naF0.0\nasg20\n(lp266\n(i__main__\nDistrict\np267\n(dp268\ng9\n(lp269\nsg6\n(lp270\nF0.0\naF0.0\naF0.0\nasg8\nS\'Toledo and the Northwest\'\np271\nsg18\n(lp272\nF0.0\naF0.0\naF0.0\nasg28\n(lp273\nI0\naI0\naI0\nasg30\nS\'Ohio\'\np274\nsg32\n(lp275\nI0\naI0\naI0\nasg34\nI9\nsba(i__main__\nDistrict\np276\n(dp277\ng9\n(lp278\nsg6\n(lp279\nF0.0\naF0.0\naF0.0\nasg8\nS\'Cleveland and the Northeast\'\np280\nsg18\n(lp281\nF0.0\naF0.0\naF0.0\nasg28\n(lp282\nI0\naI0\naI0\nasg30\nS\'Ohio\'\np283\nsg32\n(lp284\nI0\naI0\naI0\nasg34\nI15\nsba(i__main__\nDistrict\np285\n(dp286\ng9\n(lp287\nsg6\n(lp288\nF0.0\naF0.0\naF0.0\nasg8\nS\'Columbus and the Southeast\'\np289\nsg18\n(lp290\nF0.0\naF0.0\naF0.0\nasg28\n(lp291\nI0\naI0\naI0\nasg30\nS\'Ohio\'\np292\nsg32\n(lp293\nI0\naI0\naI0\nasg34\nI12\nsba(i__main__\nDistrict\np294\n(dp295\ng9\n(lp296\nsg6\n(lp297\nF0.0\naF0.0\naF0.0\nasg8\nS\'Cincinnati and Dayton\'\np298\nsg18\n(lp299\nF0.0\naF0.0\naF0.0\nasg28\n(lp300\nI0\naI0\naI0\nasg30\nS\'Ohio\'\np301\nsg32\n(lp302\nI0\naI0\naI0\nasg34\nI12\nsbasbsS\'Indiana\'\np303\n(i__main__\nState\np304\n(dp305\ng4\n(lp306\nI0\naI0\naI0\nasg6\n(lp307\nF0.0\naF0.0\naF0.0\nasg8\ng303\nsg9\n(lp308\nsg11\n(lp309\nS\'6\'\np310\nag310\nag310\nag310\naS\'6\\n\'\np311\nasg18\n(lp312\nF0.0\naF0.0\naF0.0\nasg20\n(lp313\n(i__main__\nDistrict\np314\n(dp315\ng9\n(lp316\nsg6\n(lp317\nF0.0\naF0.0\naF0.0\nasg8\nS\'Northern Indiana\'\np318\nsg18\n(lp319\nF0.0\naF0.0\naF0.0\nasg28\n(lp320\nI0\naI0\naI0\nasg30\nS\'Indiana\'\np321\nsg32\n(lp322\nI0\naI0\naI0\nasg34\nI9\nsba(i__main__\nDistrict\np323\n(dp324\ng9\n(lp325\nsg6\n(lp326\nF0.0\naF0.0\naF0.0\nasg8\nS\'Central Indiana\'\np327\nsg18\n(lp328\nF0.0\naF0.0\naF0.0\nasg28\n(lp329\nI0\naI0\naI0\nasg30\nS\'Indiana\'\np330\nsg32\n(lp331\nI0\naI0\naI0\nasg34\nI9\nsba(i__main__\nDistrict\np332\n(dp333\ng9\n(lp334\nsg6\n(lp335\nF0.0\naF0.0\naF0.0\nasg8\nS\'Southern Indiana\'\np336\nsg18\n(lp337\nF0.0\naF0.0\naF0.0\nasg28\n(lp338\nI0\naI0\naI0\nasg30\nS\'Indiana\'\np339\nsg32\n(lp340\nI0\naI0\naI0\nasg34\nI9\nsbasbsS\'Maryland\'\np341\n(i__main__\nState\np342\n(dp343\ng4\n(lp344\nI0\naI0\naI0\nasg6\n(lp345\nF0.0\naF0.0\naF0.0\nasg8\ng341\nsg9\n(lp346\nsg11\n(lp347\nS\'0\'\np348\nag348\nag348\nag348\naS\'0\\n\'\np349\nasg18\n(lp350\nF0.0\naF0.0\naF0.0\nasg20\n(lp351\n(i__main__\nDistrict\np352\n(dp353\ng9\n(lp354\nsg6\n(lp355\nF0.0\naF0.0\naF0.0\nasg8\nS\'Balitmore\'\np356\nsg18\n(lp357\nF0.0\naF0.0\naF0.0\nasg28\n(lp358\nI0\naI0\naI0\nasg30\nS\'Maryland\'\np359\nsg32\n(lp360\nI0\naI0\naI0\nasg34\nI9\nsba(i__main__\nDistrict\np361\n(dp362\ng9\n(lp363\nsg6\n(lp364\nF0.0\naF0.0\naF0.0\nasg8\nS\'DC Suburbs and Annapolis\'\np365\nsg18\n(lp366\nF0.0\naF0.0\naF0.0\nasg28\n(lp367\nI0\naI0\naI0\nasg30\nS\'Maryland\'\np368\nsg32\n(lp369\nI0\naI0\naI0\nasg34\nI6\nsba(i__main__\nDistrict\np370\n(dp371\ng9\n(lp372\nsg6\n(lp373\nF0.0\naF0.0\naF0.0\nasg8\nS\'Northern Maryland\'\np374\nsg18\n(lp375\nF0.0\naF0.0\naF0.0\nasg28\n(lp376\nI0\naI0\naI0\nasg30\nS\'Maryland\'\np377\nsg32\n(lp378\nI0\naI0\naI0\nasg34\nI9\nsbasbsS\'Louisiana\'\np379\n(i__main__\nState\np380\n(dp381\ng4\n(lp382\nI1\naI0\naI1\nasg6\n(lp383\nF10.2\naF6.8\naF83.1\nasg8\ng379\nsg9\n(lp384\nsg11\n(lp385\nS\'2\'\np386\nag386\nag386\nag386\naS\'2\\n\'\np387\nasg18\n(lp388\nF54.0\naF36.0\naF441.0\nasg20\n(lp389\n(i__main__\nDistrict\np390\n(dp391\ng9\n(lp392\nsg6\n(lp393\nF2.4\naF1.6\naF21.5\nasg8\nS\'North and Western Louisiana\'\np394\nsg18\n(lp395\nF3.0\naF2.0\naF27.0\nasg28\n(lp396\nI0\naI0\naI0\nasg30\nS\'Louisiana\'\np397\nsg32\n(lp398\nI0\naI0\naI0\nasg34\nI9\nsba(i__main__\nDistrict\np399\n(dp400\ng9\n(lp401\nsg6\n(lp402\nF2.4\naF1.6\naF17.9\nasg8\nS\'New Orleans\'\np403\nsg18\n(lp404\nF3.0\naF2.0\naF22.0\nasg28\n(lp405\nI0\naI0\naI0\nasg30\nS\'Louisiana\'\np406\nsg32\n(lp407\nI0\naI0\naI0\nasg34\nI9\nsbasbsS\'Idaho\'\np408\n(i__main__\nState\np409\n(dp410\ng4\n(lp411\nI0\naI0\naI0\nasg6\n(lp412\nF0.0\naF0.0\naF0.0\nasg8\ng408\nsg9\n(lp413\nsg11\n(lp414\nS\'8\'\np415\nag415\nag415\nag415\naS\'8\\n\'\np416\nasg18\n(lp417\nF0.0\naF0.0\naF0.0\nasg20\n(lp418\n(i__main__\nDistrict\np419\n(dp420\ng9\n(lp421\nsg6\n(lp422\nF0.0\naF0.0\naF0.0\nasg8\nS\'1st\'\np423\nsg18\n(lp424\nF0.0\naF0.0\naF0.0\nasg28\n(lp425\nI0\naI0\naI0\nasg30\nS\'Idaho\'\np426\nsg32\n(lp427\nI0\naI0\naI0\nasg34\nI6\nsbasbsS\'Arizona\'\np428\n(i__main__\nState\np429\n(dp430\ng4\n(lp431\nI0\naI0\naI0\nasg6\n(lp432\nF0.0\naF0.0\naF0.0\nasg8\ng428\nsg9\n(lp433\nsg11\n(lp434\nS\'3\'\np435\nag435\nag435\nag435\naS\'3\\n\'\np436\nasg18\n(lp437\nF0.0\naF0.0\naF0.0\nasg20\n(lp438\n(i__main__\nDistrict\np439\n(dp440\ng9\n(lp441\nsg6\n(lp442\nF0.0\naF0.0\naF0.0\nasg8\nS\'Phoenix\'\np443\nsg18\n(lp444\nF0.0\naF0.0\naF0.0\nasg28\n(lp445\nI0\naI0\naI0\nasg30\nS\'Arizona\'\np446\nsg32\n(lp447\nI0\naI0\naI0\nasg34\nI15\nsba(i__main__\nDistrict\np448\n(dp449\ng9\n(lp450\nsg6\n(lp451\nF0.0\naF0.0\naF0.0\nasg8\nS\'Southern Arizona\'\np452\nsg18\n(lp453\nF0.0\naF0.0\naF0.0\nasg28\n(lp454\nI0\naI0\naI0\nasg30\nS\'Arizona\'\np455\nsg32\n(lp456\nI0\naI0\naI0\nasg34\nI6\nsba(i__main__\nDistrict\np457\n(dp458\ng9\n(lp459\nsg6\n(lp460\nF0.0\naF0.0\naF0.0\nasg8\nS\'Northern Arizona\'\np461\nsg18\n(lp462\nF0.0\naF0.0\naF0.0\nasg28\n(lp463\nI0\naI0\naI0\nasg30\nS\'Arizona\'\np464\nsg32\n(lp465\nI0\naI0\naI0\nasg34\nI6\nsbasbsS\'Iowa\'\np466\n(i__main__\nState\np467\n(dp468\ng4\n(lp469\nI2\naI2\naI2\nasg6\n(lp470\nF41.7\naF51.3\naF7.0\nasg8\ng466\nsg9\n(lp471\nsg11\n(lp472\nS\'5\'\np473\nag473\nag473\nag473\naS\'5\\n\'\np474\nasg18\n(lp475\nF648.0\naF780.0\naF168.0\nasg20\n(lp476\n(i__main__\nDistrict\np477\n(dp478\ng9\n(lp479\nsg6\n(lp480\nF27.4\naF33.6\naF4.6\nasg8\nS\'1st\'\np481\nsg18\n(lp482\nF54.0\naF65.0\naF14.0\nasg28\n(lp483\nI0\naI0\naI0\nasg30\nS\'Iowa\'\np484\nsg32\n(lp485\nI0\naI0\naI0\nasg34\nI12\nsbasbsS\'New York\'\np486\n(i__main__\nState\np487\n(dp488\ng4\n(lp489\nI0\naI2\naI0\nasg6\n(lp490\nF0.0\naF100.0\naF0.0\nasg8\ng486\nsg9\n(lp491\nsg11\n(lp492\nS\'-8\'\np493\naS\'-8\'\np494\naS\'-8\'\np495\naS\'-8\'\np496\naS\'-8\\n\'\np497\nasg18\n(lp498\nF0.0\naF648.0\naF0.0\nasg20\n(lp499\n(i__main__\nDistrict\np500\n(dp501\ng9\n(lp502\nsg6\n(lp503\nF0.0\naF7.1\naF0.0\nasg8\nS\'New York\'\np504\nsg18\n(lp505\nF0.0\naF8.0\naF0.0\nasg28\n(lp506\nI0\naI0\naI0\nasg30\nS\'New York\'\np507\nsg32\n(lp508\nI0\naI0\naI0\nasg34\nI33\nsba(i__main__\nDistrict\np509\n(dp510\ng9\n(lp511\nsg6\n(lp512\nF0.0\naF7.1\naF0.0\nasg8\nS\'Long Island\'\np513\nsg18\n(lp514\nF0.0\naF8.0\naF0.0\nasg28\n(lp515\nI0\naI0\naI0\nasg30\nS\'New York\'\np516\nsg32\n(lp517\nI0\naI0\naI0\nasg34\nI12\nsba(i__main__\nDistrict\np518\n(dp519\ng9\n(lp520\nsg6\n(lp521\nF0.0\naF7.1\naF0.0\nasg8\nS\'Hudson Valley\'\np522\nsg18\n(lp523\nF0.0\naF8.0\naF0.0\nasg28\n(lp524\nI0\naI0\naI0\nasg30\nS\'New York\'\np525\nsg32\n(lp526\nI0\naI0\naI0\nasg34\nI15\nsba(i__main__\nDistrict\np527\n(dp528\ng9\n(lp529\nsg6\n(lp530\nF0.0\naF7.1\naF0.0\nasg8\nS\'Upstate\'\np531\nsg18\n(lp532\nF0.0\naF8.0\naF0.0\nasg28\n(lp533\nI0\naI0\naI0\nasg30\nS\'New York\'\np534\nsg32\n(lp535\nI0\naI0\naI0\nasg34\nI12\nsba(i__main__\nDistrict\np536\n(dp537\ng9\n(lp538\nsg6\n(lp539\nF0.0\naF7.1\naF0.0\nasg8\nS\'Buffalo and Rochester\'\np540\nsg18\n(lp541\nF0.0\naF8.0\naF0.0\nasg28\n(lp542\nI0\naI0\naI0\nasg30\nS\'New York\'\np543\nsg32\n(lp544\nI0\naI0\naI0\nasg34\nI9\nsbasbsS\'Michigan\'\np545\n(i__main__\nState\np546\n(dp547\ng4\n(lp548\nI2\naI0\naI2\nasg6\n(lp549\nF40.5\naF0.0\naF59.5\nasg8\ng545\nsg9\n(lp550\nsg11\n(lp551\nS\'-2\'\np552\naS\'-2\'\np553\naS\'-2\'\np554\naS\'-2\'\np555\naS\'-2\\n\'\np556\nasg18\n(lp557\nF612.0\naF0.0\naF891.0\nasg20\n(lp558\n(i__main__\nDistrict\np559\n(dp560\ng9\n(lp561\nsg6\n(lp562\nF14.6\naF0.0\naF17.0\nasg8\nS\'Detroit\'\np563\nsg18\n(lp564\nF19.0\naF0.0\naF22.0\nasg28\n(lp565\nI0\naI0\naI0\nasg30\nS\'Michigan\'\np566\nsg32\n(lp567\nI0\naI0\naI0\nasg34\nI15\nsba(i__main__\nDistrict\np568\n(dp569\ng9\n(lp570\nsg6\n(lp571\nF14.0\naF0.0\naF16.3\nasg8\nS\'Southwest Michigan\'\np572\nsg18\n(lp573\nF18.0\naF0.0\naF21.0\nasg28\n(lp574\nI0\naI0\naI0\nasg30\nS\'Michigan\'\np575\nsg32\n(lp576\nI0\naI0\naI0\nasg34\nI12\nsba(i__main__\nDistrict\np577\n(dp578\ng9\n(lp579\nsg6\n(lp580\nF6.4\naF0.0\naF18.5\nasg8\nS"Michigan\'s Rust Belt"\np581\nsg18\n(lp582\nF8.0\naF0.0\naF23.0\nasg28\n(lp583\nI0\naI0\naI0\nasg30\nS\'Michigan\'\np584\nsg32\n(lp585\nI0\naI0\naI0\nasg34\nI12\nsba(i__main__\nDistrict\np586\n(dp587\ng9\n(lp588\nsg6\n(lp589\nF4.3\naF0.0\naF9.5\nasg8\nS\'Northern Michigan\'\np590\nsg18\n(lp591\nF5.0\naF0.0\naF11.0\nasg28\n(lp592\nI0\naI0\naI0\nasg30\nS\'Michigan\'\np593\nsg32\n(lp594\nI0\naI0\naI0\nasg34\nI3\nsbasbsS\'Kansas\'\np595\n(i__main__\nState\np596\n(dp597\ng4\n(lp598\nI2\naI0\naI0\nasg6\n(lp599\nF100.0\naF0.0\naF0.0\nasg8\ng595\nsg9\n(lp600\nsg11\n(lp601\ng217\nag217\nag217\nag217\naS\'4\\n\'\np602\nasg18\n(lp603\nF72.0\naF0.0\naF0.0\nasg20\n(lp604\n(i__main__\nDistrict\np605\n(dp606\ng9\n(lp607\nsg6\n(lp608\nF5.4\naF0.0\naF0.0\nasg8\nS\'1st\'\np609\nsg18\n(lp610\nF6.0\naF0.0\naF0.0\nasg28\n(lp611\nI0\naI0\naI0\nasg30\nS\'Kansas\'\np612\nsg32\n(lp613\nI0\naI0\naI0\nasg34\nI12\nsbasbsS\'Utah\'\np614\n(i__main__\nState\np615\n(dp616\ng4\n(lp617\nI1\naI0\naI0\nasg6\n(lp618\nF100.0\naF0.0\naF0.0\nasg8\ng614\nsg9\n(lp619\nsg11\n(lp620\ng217\nag217\nag217\nag217\naS\'4\\n\'\np621\nasg18\n(lp622\nF12.0\naF0.0\naF0.0\nasg20\n(lp623\n(i__main__\nDistrict\np624\n(dp625\ng9\n(lp626\nsg6\n(lp627\nF0.9\naF0.0\naF0.0\nasg8\nS\'1st\'\np628\nsg18\n(lp629\nF1.0\naF0.0\naF0.0\nasg28\n(lp630\nI0\naI0\naI0\nasg30\nS\'Utah\'\np631\nsg32\n(lp632\nI0\naI0\naI0\nasg34\nI12\nsbasbsS\'Virginia\'\np633\n(i__main__\nState\np634\n(dp635\ng4\n(lp636\nI3\naI1\naI2\nasg6\n(lp637\nF12.4\naF10.8\naF76.8\nasg8\ng633\nsg9\n(lp638\nsg11\n(lp639\ng310\nag310\nag310\nag310\naS\'6\\n\'\np640\nasg18\n(lp641\nF396.0\naF306.0\naF2553.0\nasg20\n(lp642\n(i__main__\nDistrict\np643\n(dp644\ng9\n(lp645\nsg6\n(lp646\nF6.0\naF0.7\naF43.9\nasg8\nS\'DC Suburbs\'\np647\nsg18\n(lp648\nF12.0\naF2.0\naF89.0\nasg28\n(lp649\nI0\naI0\naI0\nasg30\nS\'Virginia\'\np650\nsg32\n(lp651\nI0\naI0\naI0\nasg34\nI9\nsba(i__main__\nDistrict\np652\n(dp653\ng9\n(lp654\nsg6\n(lp655\nF5.7\naF10.7\naF39.3\nasg8\nS\'Virginia Coast\'\np656\nsg18\n(lp657\nF12.0\naF18.0\naF85.0\nasg28\n(lp658\nI0\naI0\naI0\nasg30\nS\'Virginia\'\np659\nsg32\n(lp660\nI0\naI0\naI0\nasg34\nI15\nsba(i__main__\nDistrict\np661\n(dp662\ng9\n(lp663\nsg6\n(lp664\nF6.8\naF0.7\naF28.4\nasg8\nS\'Western Virginia\'\np665\nsg18\n(lp666\nF12.0\naF2.0\naF53.0\nasg28\n(lp667\nI0\naI0\naI0\nasg30\nS\'Virginia\'\np668\nsg32\n(lp669\nI0\naI0\naI0\nasg34\nI9\nsbasbsS\'Oregon\'\np670\n(i__main__\nState\np671\n(dp672\ng4\n(lp673\nI0\naI0\naI0\nasg6\n(lp674\nF0.0\naF0.0\naF0.0\nasg8\ng670\nsg9\n(lp675\nsg11\n(lp676\nS\'-3\'\np677\naS\'-3\'\np678\naS\'-3\'\np679\naS\'-3\'\np680\naS\'-3\\n\'\np681\nasg18\n(lp682\nF0.0\naF0.0\naF0.0\nasg20\n(lp683\n(i__main__\nDistrict\np684\n(dp685\ng9\n(lp686\nsg6\n(lp687\nF0.0\naF0.0\naF0.0\nasg8\nS\'Portland and Salem\'\np688\nsg18\n(lp689\nF0.0\naF0.0\naF0.0\nasg28\n(lp690\nI0\naI0\naI0\nasg30\nS\'Oregon\'\np691\nsg32\n(lp692\nI0\naI0\naI0\nasg34\nI9\nsba(i__main__\nDistrict\np693\n(dp694\ng9\n(lp695\nsg6\n(lp696\nF0.0\naF0.0\naF0.0\nasg8\nS\'Southern and Easthern Oregon\'\np697\nsg18\n(lp698\nF0.0\naF0.0\naF0.0\nasg28\n(lp699\nI0\naI0\naI0\nasg30\nS\'Oregon\'\np700\nsg32\n(lp701\nI0\naI0\naI0\nasg34\nI6\nsbasbsS\'Connecticut\'\np702\n(i__main__\nState\np703\n(dp704\ng4\n(lp705\nI0\naI0\naI0\nasg6\n(lp706\nF0.0\naF0.0\naF0.0\nasg8\ng702\nsg9\n(lp707\nsg11\n(lp708\ng129\nag129\nag129\nag129\naS\'7\\n\'\np709\nasg18\n(lp710\nF0.0\naF0.0\naF0.0\nasg20\n(lp711\n(i__main__\nDistrict\np712\n(dp713\ng9\n(lp714\nsg6\n(lp715\nF0.0\naF0.0\naF0.0\nasg8\nS\'New York Suburbs\'\np716\nsg18\n(lp717\nF0.0\naF0.0\naF0.0\nasg28\n(lp718\nI0\naI0\naI0\nasg30\nS\'Connecticut\'\np719\nsg32\n(lp720\nI0\naI0\naI0\nasg34\nI6\nsba(i__main__\nDistrict\np721\n(dp722\ng9\n(lp723\nsg6\n(lp724\nF0.0\naF0.0\naF0.0\nasg8\nS\'North-East Connecticut\'\np725\nsg18\n(lp726\nF0.0\naF0.0\naF0.0\nasg28\n(lp727\nI0\naI0\naI0\nasg30\nS\'Connecticut\'\np728\nsg32\n(lp729\nI0\naI0\naI0\nasg34\nI9\nsbasbsS\'Montana\'\np730\n(i__main__\nState\np731\n(dp732\ng4\n(lp733\nI0\naI0\naI0\nasg6\n(lp734\nF0.0\naF0.0\naF0.0\nasg8\ng730\nsg9\n(lp735\nsg11\n(lp736\nS\'-6\'\np737\naS\'-6\'\np738\naS\'-6\'\np739\naS\'-6\'\np740\naS\'-6\\n\'\np741\nasg18\n(lp742\nF0.0\naF0.0\naF0.0\nasg20\n(lp743\n(i__main__\nDistrict\np744\n(dp745\ng9\n(lp746\nsg6\n(lp747\nF0.0\naF0.0\naF0.0\nasg8\nS\'1st\'\np748\nsg18\n(lp749\nF0.0\naF0.0\naF0.0\nasg28\n(lp750\nI0\naI0\naI0\nasg30\nS\'Montana\'\np751\nsg32\n(lp752\nI0\naI0\naI0\nasg34\nI3\nsbasbsS\'California\'\np753\n(i__main__\nState\np754\n(dp755\ng4\n(lp756\nI4\naI0\naI0\nasg6\n(lp757\nF100.0\naF0.0\naF0.0\nasg8\ng753\nsg9\n(lp758\nsg11\n(lp759\ng473\nag473\nag473\nag473\naS\'5\\n\'\np760\nasg18\n(lp761\nF2067.0\naF0.0\naF0.0\nasg20\n(lp762\n(i__main__\nDistrict\np763\n(dp764\ng9\n(lp765\nsg6\n(lp766\nF11.5\naF0.0\naF0.0\nasg8\nS\'San Diego\'\np767\nsg18\n(lp768\nF13.0\naF0.0\naF0.0\nasg28\n(lp769\nI0\naI0\naI0\nasg30\nS\'California\'\np770\nsg32\n(lp771\nI0\naI0\naI0\nasg34\nI15\nsba(i__main__\nDistrict\np772\n(dp773\ng9\n(lp774\nsg6\n(lp775\nF11.5\naF0.0\naF0.0\nasg8\nS\'Orange County and the Inland Empire\'\np776\nsg18\n(lp777\nF13.0\naF0.0\naF0.0\nasg28\n(lp778\nI0\naI0\naI0\nasg30\nS\'California\'\np779\nsg32\n(lp780\nI0\naI0\naI0\nasg34\nI21\nsba(i__main__\nDistrict\np781\n(dp782\ng9\n(lp783\nsg6\n(lp784\nF11.5\naF0.0\naF0.0\nasg8\nS\'Los Angeles\'\np785\nsg18\n(lp786\nF13.0\naF0.0\naF0.0\nasg28\n(lp787\nI0\naI0\naI0\nasg30\nS\'California\'\np788\nsg32\n(lp789\nI0\naI0\naI0\nasg34\nI45\nsba(i__main__\nDistrict\np790\n(dp791\ng9\n(lp792\nsg6\n(lp793\nF11.5\naF0.0\naF0.0\nasg8\nS\'Central Coast\'\np794\nsg18\n(lp795\nF13.0\naF0.0\naF0.0\nasg28\n(lp796\nI0\naI0\naI0\nasg30\nS\'California\'\np797\nsg32\n(lp798\nI0\naI0\naI0\nasg34\nI12\nsba(i__main__\nDistrict\np799\n(dp800\ng9\n(lp801\nsg6\n(lp802\nF11.5\naF0.0\naF0.0\nasg8\nS\'Bay Area\'\np803\nsg18\n(lp804\nF13.0\naF0.0\naF0.0\nasg28\n(lp805\nI0\naI0\naI0\nasg30\nS\'California\'\np806\nsg32\n(lp807\nI0\naI0\naI0\nasg34\nI24\nsba(i__main__\nDistrict\np808\n(dp809\ng9\n(lp810\nsg6\n(lp811\nF11.5\naF0.0\naF0.0\nasg8\nS\'Central Valley\'\np812\nsg18\n(lp813\nF13.0\naF0.0\naF0.0\nasg28\n(lp814\nI0\naI0\naI0\nasg30\nS\'California\'\np815\nsg32\n(lp816\nI0\naI0\naI0\nasg34\nI24\nsba(i__main__\nDistrict\np817\n(dp818\ng9\n(lp819\nsg6\n(lp820\nF11.5\naF0.0\naF0.0\nasg8\nS\'Northern California and the Sierras\'\np821\nsg18\n(lp822\nF13.0\naF0.0\naF0.0\nasg28\n(lp823\nI0\naI0\naI0\nasg30\nS\'California\'\np824\nsg32\n(lp825\nI0\naI0\naI0\nasg34\nI18\nsbasbsS\'Massachusetts\'\np826\n(i__main__\nState\np827\n(dp828\ng4\n(lp829\nI2\naI1\naI1\nasg6\n(lp830\nF55.7\naF27.1\naF17.2\nasg8\ng826\nsg9\n(lp831\nsg11\n(lp832\nS\'-1\'\np833\naS\'-1\'\np834\naS\'-1\'\np835\naS\'-1\'\np836\naS\'-1\\n\'\np837\nasg18\n(lp838\nF906.0\naF564.0\naF294.0\nasg20\n(lp839\n(i__main__\nDistrict\np840\n(dp841\ng9\n(lp842\nsg6\n(lp843\nF30.0\naF0.7\naF11.4\nasg8\nS\'Boston\'\np844\nsg18\n(lp845\nF44.0\naF2.0\naF17.0\nasg28\n(lp846\nI0\naI0\naI0\nasg30\nS\'Massachusetts\'\np847\nsg32\n(lp848\nI0\naI0\naI0\nasg34\nI12\nsba(i__main__\nDistrict\np849\n(dp850\ng9\n(lp851\nsg6\n(lp852\nF15.0\naF9.5\naF3.2\nasg8\nS\'Southeast Massachusetts\'\np853\nsg18\n(lp854\nF21.0\naF13.0\naF5.0\nasg28\n(lp855\nI0\naI0\naI0\nasg30\nS\'Massachusetts\'\np856\nsg32\n(lp857\nI0\naI0\naI0\nasg34\nI9\nsba(i__main__\nDistrict\np858\n(dp859\ng9\n(lp860\nsg6\n(lp861\nF13.8\naF23.1\naF2.9\nasg8\nS\'Western Massachusetts\'\np862\nsg18\n(lp863\nF21.0\naF47.0\naF5.0\nasg28\n(lp864\nI0\naI0\naI0\nasg30\nS\'Massachusetts\'\np865\nsg32\n(lp866\nI0\naI0\naI0\nasg34\nI9\nsbasbsS\'West Virginia\'\np867\n(i__main__\nState\np868\n(dp869\ng4\n(lp870\nI0\naI0\naI0\nasg6\n(lp871\nF0.0\naF0.0\naF0.0\nasg8\ng867\nsg9\n(lp872\nsg11\n(lp873\ng415\nag415\nag415\nag415\naS\'8\\n\'\np874\nasg18\n(lp875\nF0.0\naF0.0\naF0.0\nasg20\n(lp876\n(i__main__\nDistrict\np877\n(dp878\ng9\n(lp879\nsg6\n(lp880\nF0.0\naF0.0\naF0.0\nasg8\nS\'1st\'\np881\nsg18\n(lp882\nF0.0\naF0.0\naF0.0\nasg28\n(lp883\nI0\naI0\naI0\nasg30\nS\'West Virginia\'\np884\nsg32\n(lp885\nI0\naI0\naI0\nasg34\nI9\nsbasbsS\'South Carolina\'\np886\n(i__main__\nState\np887\n(dp888\ng4\n(lp889\nI1\naI2\naI2\nasg6\n(lp890\nF5.8\naF31.8\naF62.4\nasg8\ng886\nsg9\n(lp891\nsg11\n(lp892\ng348\nag348\nag348\nag348\naS\'0\\n\'\np893\nasg18\n(lp894\nF132.0\naF900.0\naF1587.0\nasg20\n(lp895\n(i__main__\nDistrict\np896\n(dp897\ng9\n(lp898\nsg6\n(lp899\nF2.0\naF14.9\naF31.8\nasg8\nS\'Inland South Carolina\'\np900\nsg18\n(lp901\nF5.0\naF42.0\naF76.0\nasg28\n(lp902\nI0\naI0\naI0\nasg30\nS\'South Carolina\'\np903\nsg32\n(lp904\nI0\naI0\naI0\nasg34\nI12\nsba(i__main__\nDistrict\np905\n(dp906\ng9\n(lp907\nsg6\n(lp908\nF4.0\naF16.7\naF29.4\nasg8\nS\'Coastal South Carolina\'\np909\nsg18\n(lp910\nF8.0\naF44.0\naF75.0\nasg28\n(lp911\nI0\naI0\naI0\nasg30\nS\'South Carolina\'\np912\nsg32\n(lp913\nI0\naI0\naI0\nasg34\nI9\nsbasbsS\'New Hampshire\'\np914\n(i__main__\nState\np915\n(dp916\ng4\n(lp917\nI2\naI3\naI2\nasg6\n(lp918\nF18.8\naF47.1\naF34.1\nasg8\ng914\nsg9\n(lp919\nsg11\n(lp920\nS\'-9\'\np921\naS\'-9\'\np922\naS\'-9\'\np923\naS\'-9\'\np924\naS\'-9\\n\'\np925\nasg18\n(lp926\nF480.0\naF384.0\naF276.0\nasg20\n(lp927\n(i__main__\nDistrict\np928\n(dp929\ng9\n(lp930\nsg6\n(lp931\nF12.4\naF31.2\naF22.6\nasg8\nS\'1st\'\np932\nsg18\n(lp933\nF80.0\naF64.0\naF46.0\nasg28\n(lp934\nI0\naI0\naI0\nasg30\nS\'New Hampshire\'\np935\nsg32\n(lp936\nI0\naI0\naI0\nasg34\nI6\nsbasbsS\'Vermont\'\np937\n(i__main__\nState\np938\n(dp939\ng4\n(lp940\nI0\naI0\naI1\nasg6\n(lp941\nF0.0\naF0.0\naF100.0\nasg8\ng937\nsg9\n(lp942\nsg11\n(lp943\ng473\nag473\nag473\nag473\naS\'5\\n\'\np944\nasg18\n(lp945\nF0.0\naF0.0\naF42.0\nasg20\n(lp946\n(i__main__\nDistrict\np947\n(dp948\ng9\n(lp949\nsg6\n(lp950\nF0.0\naF0.0\naF11.3\nasg8\nS\'1st\'\np951\nsg18\n(lp952\nF0.0\naF0.0\naF14.0\nasg28\n(lp953\nI0\naI0\naI0\nasg30\nS\'Vermont\'\np954\nsg32\n(lp955\nI0\naI0\naI0\nasg34\nI3\nsbasbsS\'Delaware\'\np956\n(i__main__\nState\np957\n(dp958\ng4\n(lp959\nI0\naI0\naI0\nasg6\n(lp960\nF0.0\naF0.0\naF0.0\nasg8\ng956\nsg9\n(lp961\nsg11\n(lp962\ng415\nag415\nag415\nag415\naS\'8\\n\'\np963\nasg18\n(lp964\nF0.0\naF0.0\naF0.0\nasg20\n(lp965\n(i__main__\nDistrict\np966\n(dp967\ng9\n(lp968\nsg6\n(lp969\nF0.0\naF0.0\naF0.0\nasg8\nS\'1st\'\np970\nsg18\n(lp971\nF0.0\naF0.0\naF0.0\nasg28\n(lp972\nI0\naI0\naI0\nasg30\nS\'Delaware\'\np973\nsg32\n(lp974\nI0\naI0\naI0\nasg34\nI3\nsbasbsS\'North Dakota\'\np975\n(i__main__\nState\np976\n(dp977\ng4\n(lp978\nI0\naI0\naI1\nasg6\n(lp979\nF0.0\naF0.0\naF100.0\nasg8\ng975\nsg9\n(lp980\nsg11\n(lp981\nS\'-6\'\np982\naS\'-6\'\np983\naS\'-6\'\np984\naS\'-6\'\np985\naS\'-6\\n\'\np986\nasg18\n(lp987\nF0.0\naF0.0\naF36.0\nasg20\n(lp988\n(i__main__\nDistrict\np989\n(dp990\ng9\n(lp991\nsg6\n(lp992\nF0.0\naF0.0\naF9.6\nasg8\nS\'1st\'\np993\nsg18\n(lp994\nF0.0\naF0.0\naF12.0\nasg28\n(lp995\nI0\naI0\naI0\nasg30\nS\'North Dakota\'\np996\nsg32\n(lp997\nI0\naI0\naI0\nasg34\nI3\nsbasbsS\'Pennsylvania\'\np998\n(i__main__\nState\np999\n(dp1000\ng4\n(lp1001\nI0\naI0\naI0\nasg6\n(lp1002\nF0.0\naF0.0\naF0.0\nasg8\ng998\nsg9\n(lp1003\nsg11\n(lp1004\nS\'-2\'\np1005\naS\'-2\'\np1006\naS\'-2\'\np1007\naS\'-2\'\np1008\naS\'-2\\n\'\np1009\nasg18\n(lp1010\nF0.0\naF0.0\naF0.0\nasg20\n(lp1011\n(i__main__\nDistrict\np1012\n(dp1013\ng9\n(lp1014\nsg6\n(lp1015\nF0.0\naF0.0\naF0.0\nasg8\nS\'Central Pennsylvania\'\np1016\nsg18\n(lp1017\nF0.0\naF0.0\naF0.0\nasg28\n(lp1018\nI0\naI0\naI0\nasg30\nS\'Pennsylvania\'\np1019\nsg32\n(lp1020\nI0\naI0\naI0\nasg34\nI12\nsba(i__main__\nDistrict\np1021\n(dp1022\ng9\n(lp1023\nsg6\n(lp1024\nF0.0\naF0.0\naF0.0\nasg8\nS\'Philadelphia\'\np1025\nsg18\n(lp1026\nF0.0\naF0.0\naF0.0\nasg28\n(lp1027\nI0\naI0\naI0\nasg30\nS\'Pennsylvania\'\np1028\nsg32\n(lp1029\nI0\naI0\naI0\nasg34\nI18\nsba(i__main__\nDistrict\np1030\n(dp1031\ng9\n(lp1032\nsg6\n(lp1033\nF0.0\naF0.0\naF0.0\nasg8\nS\'Pittsburg\'\np1034\nsg18\n(lp1035\nF0.0\naF0.0\naF0.0\nasg28\n(lp1036\nI0\naI0\naI0\nasg30\nS\'Pennsylvania\'\np1037\nsg32\n(lp1038\nI0\naI0\naI0\nasg34\nI12\nsba(i__main__\nDistrict\np1039\n(dp1040\ng9\n(lp1041\nsg6\n(lp1042\nF0.0\naF0.0\naF0.0\nasg8\nS\'Northeast Pennsylvania\'\np1043\nsg18\n(lp1044\nF0.0\naF0.0\naF0.0\nasg28\n(lp1045\nI0\naI0\naI0\nasg30\nS\'Pennsylvania\'\np1046\nsg32\n(lp1047\nI0\naI0\naI0\nasg34\nI12\nsbasbsS\'Florida\'\np1048\n(i__main__\nState\np1049\n(dp1050\ng4\n(lp1051\nI0\naI2\naI0\nasg6\n(lp1052\nF0.0\naF100.0\naF0.0\nasg8\ng1048\nsg9\n(lp1053\nsg11\n(lp1054\nS\'9\'\np1055\nag1055\nag1055\nag1055\naS\'9\\n\'\np1056\nasg18\n(lp1057\nF0.0\naF648.0\naF0.0\nasg20\n(lp1058\n(i__main__\nDistrict\np1059\n(dp1060\ng9\n(lp1061\nsg6\n(lp1062\nF0.0\naF7.1\naF0.0\nasg8\nS\'The Panhandle\'\np1063\nsg18\n(lp1064\nF0.0\naF8.0\naF0.0\nasg28\n(lp1065\nI0\naI0\naI0\nasg30\nS\'Florida\'\np1066\nsg32\n(lp1067\nI0\naI0\naI0\nasg34\nI12\nsba(i__main__\nDistrict\np1068\n(dp1069\ng9\n(lp1070\nsg6\n(lp1071\nF0.0\naF7.1\naF0.0\nasg8\nS\'Jacksonville and Daytona Beach\'\np1072\nsg18\n(lp1073\nF0.0\naF8.0\naF0.0\nasg28\n(lp1074\nI0\naI0\naI0\nasg30\nS\'Florida\'\np1075\nsg32\n(lp1076\nI0\naI0\naI0\nasg34\nI9\nsba(i__main__\nDistrict\np1077\n(dp1078\ng9\n(lp1079\nsg6\n(lp1080\nF0.0\naF7.1\naF0.0\nasg8\nS\'Orlando and the mid-coast\'\np1081\nsg18\n(lp1082\nF0.0\naF8.0\naF0.0\nasg28\n(lp1083\nI0\naI0\naI0\nasg30\nS\'Florida\'\np1084\nsg32\n(lp1085\nI0\naI0\naI0\nasg34\nI12\nsba(i__main__\nDistrict\np1086\n(dp1087\ng9\n(lp1088\nsg6\n(lp1089\nF0.0\naF7.1\naF0.0\nasg8\nS\'Tampa and St. Petersburg\'\np1090\nsg18\n(lp1091\nF0.0\naF8.0\naF0.0\nasg28\n(lp1092\nI0\naI0\naI0\nasg30\nS\'Florida\'\np1093\nsg32\n(lp1094\nI0\naI0\naI0\nasg34\nI15\nsba(i__main__\nDistrict\np1095\n(dp1096\ng9\n(lp1097\nsg6\n(lp1098\nF0.0\naF7.1\naF0.0\nasg8\nS\'Miami and West Palm Beach\'\np1099\nsg18\n(lp1100\nF0.0\naF8.0\naF0.0\nasg28\n(lp1101\nI0\naI0\naI0\nasg30\nS\'Florida\'\np1102\nsg32\n(lp1103\nI0\naI0\naI0\nasg34\nI21\nsba(i__main__\nDistrict\np1104\n(dp1105\ng9\n(lp1106\nsg6\n(lp1107\nF0.0\naF7.1\naF0.0\nasg8\nS\'Southwest Florida\'\np1108\nsg18\n(lp1109\nF0.0\naF8.0\naF0.0\nasg28\n(lp1110\nI0\naI0\naI0\nasg30\nS\'Florida\'\np1111\nsg32\n(lp1112\nI0\naI0\naI0\nasg34\nI12\nsbasbsS\'Alaska\'\np1113\n(i__main__\nState\np1114\n(dp1115\ng4\n(lp1116\nI0\naI0\naI0\nasg6\n(lp1117\nF0.0\naF0.0\naF0.0\nasg8\ng1113\nsg9\n(lp1118\nsg11\n(lp1119\ng386\nag386\nag386\nag386\naS\'2\\n\'\np1120\nasg18\n(lp1121\nF0.0\naF0.0\naF0.0\nasg20\n(lp1122\n(i__main__\nDistrict\np1123\n(dp1124\ng9\n(lp1125\nsg6\n(lp1126\nF0.0\naF0.0\naF0.0\nasg8\nS\'1st\'\np1127\nsg18\n(lp1128\nF0.0\naF0.0\naF0.0\nasg28\n(lp1129\nI0\naI0\naI0\nasg30\nS\'Alaska\'\np1130\nsg32\n(lp1131\nI0\naI0\naI0\nasg34\nI3\nsbasbsS\'Kentucky\'\np1132\n(i__main__\nState\np1133\n(dp1134\ng4\n(lp1135\nI2\naI0\naI1\nasg6\n(lp1136\nF28.7\naF0.0\naF71.3\nasg8\ng1132\nsg9\n(lp1137\nsg11\n(lp1138\ng435\nag435\nag435\nag435\naS\'3\\n\'\np1139\nasg18\n(lp1140\nF108.0\naF0.0\naF270.0\nasg20\n(lp1141\n(i__main__\nDistrict\np1142\n(dp1143\ng9\n(lp1144\nsg6\n(lp1145\nF5.1\naF0.0\naF12.6\nasg8\nS\'Louisville and Lexington\'\np1146\nsg18\n(lp1147\nF6.0\naF0.0\naF15.0\nasg28\n(lp1148\nI0\naI0\naI0\nasg30\nS\'Kentucky\'\np1149\nsg32\n(lp1150\nI0\naI0\naI0\nasg34\nI9\nsba(i__main__\nDistrict\np1151\n(dp1152\ng9\n(lp1153\nsg6\n(lp1154\nF5.1\naF0.0\naF12.6\nasg8\nS\'Southern Kentucky\'\np1155\nsg18\n(lp1156\nF6.0\naF0.0\naF15.0\nasg28\n(lp1157\nI0\naI0\naI0\nasg30\nS\'Kentucky\'\np1158\nsg32\n(lp1159\nI0\naI0\naI0\nasg34\nI9\nsbasbsS\'Hawaii\'\np1160\n(i__main__\nState\np1161\n(dp1162\ng4\n(lp1163\nI2\naI0\naI0\nasg6\n(lp1164\nF100.0\naF0.0\naF0.0\nasg8\ng1160\nsg9\n(lp1165\nsg11\n(lp1166\ng1055\nag1055\nag1055\nag1055\naS\'9\\n\'\np1167\nasg18\n(lp1168\nF24.0\naF0.0\naF0.0\nasg20\n(lp1169\n(i__main__\nDistrict\np1170\n(dp1171\ng9\n(lp1172\nsg6\n(lp1173\nF3.6\naF0.0\naF0.0\nasg8\nS\'1st\'\np1174\nsg18\n(lp1175\nF4.0\naF0.0\naF0.0\nasg28\n(lp1176\nI0\naI0\naI0\nasg30\nS\'Hawaii\'\np1177\nsg32\n(lp1178\nI0\naI0\naI0\nasg34\nI6\nsbasbsS\'Nebraska\'\np1179\n(i__main__\nState\np1180\n(dp1181\ng4\n(lp1182\nI1\naI0\naI0\nasg6\n(lp1183\nF100.0\naF0.0\naF0.0\nasg8\ng1179\nsg9\n(lp1184\nsg11\n(lp1185\nS\'-7\'\np1186\naS\'-7\'\np1187\naS\'-7\'\np1188\naS\'-7\'\np1189\naS\'-7\\n\'\np1190\nasg18\n(lp1191\nF27.0\naF0.0\naF0.0\nasg20\n(lp1192\n(i__main__\nDistrict\np1193\n(dp1194\ng9\n(lp1195\nsg6\n(lp1196\nF2.7\naF0.0\naF0.0\nasg8\nS\'1st\'\np1197\nsg18\n(lp1198\nF3.0\naF0.0\naF0.0\nasg28\n(lp1199\nI0\naI0\naI0\nasg30\nS\'Nebraska\'\np1200\nsg32\n(lp1201\nI0\naI0\naI0\nasg34\nI9\nsbasbsS\'Missouri\'\np1202\n(i__main__\nState\np1203\n(dp1204\ng4\n(lp1205\nI0\naI0\naI0\nasg6\n(lp1206\nF0.0\naF0.0\naF0.0\nasg8\ng1202\nsg9\n(lp1207\nsg11\n(lp1208\nS\'-5\'\np1209\naS\'-5\'\np1210\naS\'-5\'\np1211\naS\'-5\'\np1212\naS\'-5\\n\'\np1213\nasg18\n(lp1214\nF0.0\naF0.0\naF0.0\nasg20\n(lp1215\n(i__main__\nDistrict\np1216\n(dp1217\ng9\n(lp1218\nsg6\n(lp1219\nF0.0\naF0.0\naF0.0\nasg8\nS\'Kansas City and Northern Missouri\'\np1220\nsg18\n(lp1221\nF0.0\naF0.0\naF0.0\nasg28\n(lp1222\nI0\naI0\naI0\nasg30\nS\'Missouri\'\np1223\nsg32\n(lp1224\nI0\naI0\naI0\nasg34\nI6\nsba(i__main__\nDistrict\np1225\n(dp1226\ng9\n(lp1227\nsg6\n(lp1228\nF0.0\naF0.0\naF0.0\nasg8\nS\'Southern Missouri\'\np1229\nsg18\n(lp1230\nF0.0\naF0.0\naF0.0\nasg28\n(lp1231\nI0\naI0\naI0\nasg30\nS\'Missouri\'\np1232\nsg32\n(lp1233\nI0\naI0\naI0\nasg34\nI9\nsba(i__main__\nDistrict\np1234\n(dp1235\ng9\n(lp1236\nsg6\n(lp1237\nF0.0\naF0.0\naF0.0\nasg8\nS\'St. Louis\'\np1238\nsg18\n(lp1239\nF0.0\naF0.0\naF0.0\nasg28\n(lp1240\nI0\naI0\naI0\nasg30\nS\'Missouri\'\np1241\nsg32\n(lp1242\nI0\naI0\naI0\nasg34\nI9\nsbasbsS\'Wisconsin\'\np1243\n(i__main__\nState\np1244\n(dp1245\ng4\n(lp1246\nI0\naI0\naI0\nasg6\n(lp1247\nF0.0\naF0.0\naF0.0\nasg8\ng1243\nsg9\n(lp1248\nsg11\n(lp1249\ng1055\nag1055\nag1055\nag1055\naS\'9\\n\'\np1250\nasg18\n(lp1251\nF0.0\naF0.0\naF0.0\nasg20\n(lp1252\n(i__main__\nDistrict\np1253\n(dp1254\ng9\n(lp1255\nsg6\n(lp1256\nF0.0\naF0.0\naF0.0\nasg8\nS\'Milwaukee\'\np1257\nsg18\n(lp1258\nF0.0\naF0.0\naF0.0\nasg28\n(lp1259\nI0\naI0\naI0\nasg30\nS\'Wisconsin\'\np1260\nsg32\n(lp1261\nI0\naI0\naI0\nasg34\nI9\nsba(i__main__\nDistrict\np1262\n(dp1263\ng9\n(lp1264\nsg6\n(lp1265\nF0.0\naF0.0\naF0.0\nasg8\nS\'Northern Wisconsin\'\np1266\nsg18\n(lp1267\nF0.0\naF0.0\naF0.0\nasg28\n(lp1268\nI0\naI0\naI0\nasg30\nS\'Wisconsin\'\np1269\nsg32\n(lp1270\nI0\naI0\naI0\nasg34\nI6\nsba(i__main__\nDistrict\np1271\n(dp1272\ng9\n(lp1273\nsg6\n(lp1274\nF0.0\naF0.0\naF0.0\nasg8\nS\'Central Wisconsin\'\np1275\nsg18\n(lp1276\nF0.0\naF0.0\naF0.0\nasg28\n(lp1277\nI0\naI0\naI0\nasg30\nS\'Wisconsin\'\np1278\nsg32\n(lp1279\nI0\naI0\naI0\nasg34\nI9\nsbasbsS\'Alabama\'\np1280\n(i__main__\nState\np1281\n(dp1282\ng4\n(lp1283\nI3\naI2\naI2\nasg6\n(lp1284\nF34.6\naF26.8\naF38.6\nasg8\ng1280\nsg9\n(lp1285\nsg11\n(lp1286\nS\'1\'\np1287\nag1287\nag1287\nag1287\naS\'1\\n\'\np1288\nasg18\n(lp1289\nF384.0\naF300.0\naF1026.0\nasg20\n(lp1290\n(i__main__\nDistrict\np1291\n(dp1292\ng9\n(lp1293\nsg6\n(lp1294\nF19.2\naF1.5\naF12.2\nasg8\nS\'Northern Alabama\'\np1295\nsg18\n(lp1296\nF28.0\naF4.0\naF49.0\nasg28\n(lp1297\nI0\naI0\naI0\nasg30\nS\'Alabama\'\np1298\nsg32\n(lp1299\nI0\naI0\naI0\nasg34\nI6\nsba(i__main__\nDistrict\np1300\n(dp1301\ng9\n(lp1302\nsg6\n(lp1303\nF12.1\naF18.5\naF12.1\nasg8\nS\'Central Alabama\'\np1304\nsg18\n(lp1305\nF20.0\naF28.0\naF50.0\nasg28\n(lp1306\nI0\naI0\naI0\nasg30\nS\'Alabama\'\np1307\nsg32\n(lp1308\nI0\naI0\naI0\nasg34\nI9\nsba(i__main__\nDistrict\np1309\n(dp1310\ng9\n(lp1311\nsg6\n(lp1312\nF2.5\naF1.7\naF14.2\nasg8\nS\'Southern Alabama\'\np1313\nsg18\n(lp1314\nF6.0\naF4.0\naF47.0\nasg28\n(lp1315\nI0\naI0\naI0\nasg30\nS\'Alabama\'\np1316\nsg32\n(lp1317\nI0\naI0\naI0\nasg34\nI6\nsbasbsS\'Rhode Island\'\np1318\n(i__main__\nState\np1319\n(dp1320\ng4\n(lp1321\nI0\naI0\naI0\nasg6\n(lp1322\nF0.0\naF0.0\naF0.0\nasg8\ng1318\nsg9\n(lp1323\nsg11\n(lp1324\nS\'-1\'\np1325\naS\'-1\'\np1326\naS\'-1\'\np1327\naS\'-1\'\np1328\naS\'-1\\n\'\np1329\nasg18\n(lp1330\nF0.0\naF0.0\naF0.0\nasg20\n(lp1331\n(i__main__\nDistrict\np1332\n(dp1333\ng9\n(lp1334\nsg6\n(lp1335\nF0.0\naF0.0\naF0.0\nasg8\nS\'1st\'\np1336\nsg18\n(lp1337\nF0.0\naF0.0\naF0.0\nasg28\n(lp1338\nI0\naI0\naI0\nasg30\nS\'Rhode Island\'\np1339\nsg32\n(lp1340\nI0\naI0\naI0\nasg34\nI6\nsbasbsS\'South Dakota\'\np1341\n(i__main__\nState\np1342\n(dp1343\ng4\n(lp1344\nI0\naI0\naI0\nasg6\n(lp1345\nF0.0\naF0.0\naF0.0\nasg8\ng1341\nsg9\n(lp1346\nsg11\n(lp1347\ng1287\nag1287\nag1287\nag1287\naS\'1\\n\'\np1348\nasg18\n(lp1349\nF0.0\naF0.0\naF0.0\nasg20\n(lp1350\n(i__main__\nDistrict\np1351\n(dp1352\ng9\n(lp1353\nsg6\n(lp1354\nF0.0\naF0.0\naF0.0\nasg8\nS\'1st\'\np1355\nsg18\n(lp1356\nF0.0\naF0.0\naF0.0\nasg28\n(lp1357\nI0\naI0\naI0\nasg30\nS\'South Dakota\'\np1358\nsg32\n(lp1359\nI0\naI0\naI0\nasg34\nI3\nsbasbsS\'Colorado\'\np1360\n(i__main__\nState\np1361\n(dp1362\ng4\n(lp1363\nI0\naI1\naI2\nasg6\n(lp1364\nF0.0\naF16.3\naF83.7\nasg8\ng1360\nsg9\n(lp1365\nsg11\n(lp1366\ng310\nag310\nag310\nag310\naS\'6\\n\'\np1367\nasg18\n(lp1368\nF0.0\naF195.0\naF1311.0\nasg20\n(lp1369\n(i__main__\nDistrict\np1370\n(dp1371\ng9\n(lp1372\nsg6\n(lp1373\nF0.0\naF0.7\naF35.7\nasg8\nS\'Denver and the Northern Front Range\'\np1374\nsg18\n(lp1375\nF0.0\naF2.0\naF71.0\nasg28\n(lp1376\nI0\naI0\naI0\nasg30\nS\'Colorado\'\np1377\nsg32\n(lp1378\nI0\naI0\naI0\nasg34\nI12\nsba(i__main__\nDistrict\np1379\n(dp1380\ng9\n(lp1381\nsg6\n(lp1382\nF0.0\naF13.2\naF25.0\nasg8\nS\'The Rest of Colorado\'\np1383\nsg18\n(lp1384\nF0.0\naF19.0\naF51.0\nasg28\n(lp1385\nI0\naI0\naI0\nasg30\nS\'Colorado\'\np1386\nsg32\n(lp1387\nI0\naI0\naI0\nasg34\nI9\nsbasbsS\'New Jersey\'\np1388\n(i__main__\nState\np1389\n(dp1390\ng4\n(lp1391\nI0\naI0\naI0\nasg6\n(lp1392\nF0.0\naF0.0\naF0.0\nasg8\ng1388\nsg9\n(lp1393\nsg11\n(lp1394\nS\'-10\'\np1395\naS\'-10\'\np1396\naS\'-10\'\np1397\naS\'-10\'\np1398\naS\'-10\\n\'\np1399\nasg18\n(lp1400\nF0.0\naF0.0\naF0.0\nasg20\n(lp1401\n(i__main__\nDistrict\np1402\n(dp1403\ng9\n(lp1404\nsg6\n(lp1405\nF0.0\naF0.0\naF0.0\nasg8\nS\'Newark\'\np1406\nsg18\n(lp1407\nF0.0\naF0.0\naF0.0\nasg28\n(lp1408\nI0\naI0\naI0\nasg30\nS\'New Jersey\'\np1409\nsg32\n(lp1410\nI0\naI0\naI0\nasg34\nI15\nsba(i__main__\nDistrict\np1411\n(dp1412\ng9\n(lp1413\nsg6\n(lp1414\nF0.0\naF0.0\naF0.0\nasg8\nS\'Cental New Jersey\'\np1415\nsg18\n(lp1416\nF0.0\naF0.0\naF0.0\nasg28\n(lp1417\nI0\naI0\naI0\nasg30\nS\'New Jersey\'\np1418\nsg32\n(lp1419\nI0\naI0\naI0\nasg34\nI12\nsba(i__main__\nDistrict\np1420\n(dp1421\ng9\n(lp1422\nsg6\n(lp1423\nF0.0\naF0.0\naF0.0\nasg8\nS\'Southern New Jersey\'\np1424\nsg18\n(lp1425\nF0.0\naF0.0\naF0.0\nasg28\n(lp1426\nI0\naI0\naI0\nasg30\nS\'New Jersey\'\np1427\nsg32\n(lp1428\nI0\naI0\naI0\nasg34\nI9\nsbasbsS\'Washington\'\np1429\n(i__main__\nState\np1430\n(dp1431\ng4\n(lp1432\nI0\naI0\naI0\nasg6\n(lp1433\nF0.0\naF0.0\naF0.0\nasg8\ng1429\nsg9\n(lp1434\nsg11\n(lp1435\ng129\nag129\nag129\nag129\naS\'7\\n\'\np1436\nasg18\n(lp1437\nF0.0\naF0.0\naF0.0\nasg20\n(lp1438\n(i__main__\nDistrict\np1439\n(dp1440\ng9\n(lp1441\nsg6\n(lp1442\nF0.0\naF0.0\naF0.0\nasg8\nS\'Seattle\'\np1443\nsg18\n(lp1444\nF0.0\naF0.0\naF0.0\nasg28\n(lp1445\nI0\naI0\naI0\nasg30\nS\'Washington\'\np1446\nsg32\n(lp1447\nI0\naI0\naI0\nasg34\nI15\nsba(i__main__\nDistrict\np1448\n(dp1449\ng9\n(lp1450\nsg6\n(lp1451\nF0.0\naF0.0\naF0.0\nasg8\nS\'Central Washington\'\np1452\nsg18\n(lp1453\nF0.0\naF0.0\naF0.0\nasg28\n(lp1454\nI0\naI0\naI0\nasg30\nS\'Washington\'\np1455\nsg32\n(lp1456\nI0\naI0\naI0\nasg34\nI9\nsba(i__main__\nDistrict\np1457\n(dp1458\ng9\n(lp1459\nsg6\n(lp1460\nF0.0\naF0.0\naF0.0\nasg8\nS\'Eastern Washington\'\np1461\nsg18\n(lp1462\nF0.0\naF0.0\naF0.0\nasg28\n(lp1463\nI0\naI0\naI0\nasg30\nS\'Washington\'\np1464\nsg32\n(lp1465\nI0\naI0\naI0\nasg34\nI6\nsbasbsS\'North Carolina\'\np1466\n(i__main__\nState\np1467\n(dp1468\ng4\n(lp1469\nI0\naI0\naI0\nasg6\n(lp1470\nF0.0\naF0.0\naF0.0\nasg8\ng1466\nsg9\n(lp1471\nsg11\n(lp1472\nS\'-7\'\np1473\naS\'-7\'\np1474\naS\'-7\'\np1475\naS\'-7\'\np1476\naS\'-7\\n\'\np1477\nasg18\n(lp1478\nF0.0\naF0.0\naF0.0\nasg20\n(lp1479\n(i__main__\nDistrict\np1480\n(dp1481\ng9\n(lp1482\nsg6\n(lp1483\nF0.0\naF0.0\naF0.0\nasg8\nS\'Western North Carolina\'\np1484\nsg18\n(lp1485\nF0.0\naF0.0\naF0.0\nasg28\n(lp1486\nI0\naI0\naI0\nasg30\nS\'North Carolina\'\np1487\nsg32\n(lp1488\nI0\naI0\naI0\nasg34\nI9\nsba(i__main__\nDistrict\np1489\n(dp1490\ng9\n(lp1491\nsg6\n(lp1492\nF0.0\naF0.0\naF0.0\nasg8\nS\'Raleigh-Durham\'\np1493\nsg18\n(lp1494\nF0.0\naF0.0\naF0.0\nasg28\n(lp1495\nI0\naI0\naI0\nasg30\nS\'North Carolina\'\np1496\nsg32\n(lp1497\nI0\naI0\naI0\nasg34\nI12\nsba(i__main__\nDistrict\np1498\n(dp1499\ng9\n(lp1500\nsg6\n(lp1501\nF0.0\naF0.0\naF0.0\nasg8\nS\'Charlotte\'\np1502\nsg18\n(lp1503\nF0.0\naF0.0\naF0.0\nasg28\n(lp1504\nI0\naI0\naI0\nasg30\nS\'North Carolina\'\np1505\nsg32\n(lp1506\nI0\naI0\naI0\nasg34\nI9\nsba(i__main__\nDistrict\np1507\n(dp1508\ng9\n(lp1509\nsg6\n(lp1510\nF0.0\naF0.0\naF0.0\nasg8\nS\'The Coast\'\np1511\nsg18\n(lp1512\nF0.0\naF0.0\naF0.0\nasg28\n(lp1513\nI0\naI0\naI0\nasg30\nS\'North Carolina\'\np1514\nsg32\n(lp1515\nI0\naI0\naI0\nasg34\nI9\nsbasbsS\'Tennessee\'\np1516\n(i__main__\nState\np1517\n(dp1518\ng4\n(lp1519\nI1\naI1\naI0\nasg6\n(lp1520\nF87.4\naF12.6\naF0.0\nasg8\ng1516\nsg9\n(lp1521\nsg11\n(lp1522\ng386\nag386\nag386\nag386\naS\'2\\n\'\np1523\nasg18\n(lp1524\nF216.0\naF54.0\naF0.0\nasg20\n(lp1525\n(i__main__\nDistrict\np1526\n(dp1527\ng9\n(lp1528\nsg6\n(lp1529\nF10.4\naF0.9\naF0.0\nasg8\nS\'Central Tennessee\'\np1530\nsg18\n(lp1531\nF13.0\naF2.0\naF0.0\nasg28\n(lp1532\nI0\naI0\naI0\nasg30\nS\'Tennessee\'\np1533\nsg32\n(lp1534\nI0\naI0\naI0\nasg34\nI12\nsba(i__main__\nDistrict\np1535\n(dp1536\ng9\n(lp1537\nsg6\n(lp1538\nF2.7\naF0.9\naF0.0\nasg8\nS\'Eastern Tennessee\'\np1539\nsg18\n(lp1540\nF4.0\naF2.0\naF0.0\nasg28\n(lp1541\nI0\naI0\naI0\nasg30\nS\'Tennessee\'\np1542\nsg32\n(lp1543\nI0\naI0\naI0\nasg34\nI9\nsba(i__main__\nDistrict\np1544\n(dp1545\ng9\n(lp1546\nsg6\n(lp1547\nF2.7\naF0.9\naF0.0\nasg8\nS\'Memphis and Western Tennessee\'\np1548\nsg18\n(lp1549\nF4.0\naF2.0\naF0.0\nasg28\n(lp1550\nI0\naI0\naI0\nasg30\nS\'Tennessee\'\np1551\nsg32\n(lp1552\nI0\naI0\naI0\nasg34\nI6\nsbasbsS\'Texas\'\np1553\n(i__main__\nState\np1554\n(dp1555\ng4\n(lp1556\nI4\naI2\naI0\nasg6\n(lp1557\nF63.5\naF36.5\naF0.0\nasg8\ng1553\nsg9\n(lp1558\nsg11\n(lp1559\ng435\nag435\nag435\nag435\naS\'3\\n\'\np1560\nasg18\n(lp1561\nF3975.0\naF3786.0\naF0.0\nasg20\n(lp1562\n(i__main__\nDistrict\np1563\n(dp1564\ng9\n(lp1565\nsg6\n(lp1566\nF11.1\naF5.1\naF0.0\nasg8\nS\'West Texas\'\np1567\nsg18\n(lp1568\nF17.0\naF21.0\naF0.0\nasg28\n(lp1569\nI0\naI0\naI0\nasg30\nS\'Texas\'\np1570\nsg32\n(lp1571\nI0\naI0\naI0\nasg34\nI15\nsba(i__main__\nDistrict\np1572\n(dp1573\ng9\n(lp1574\nsg6\n(lp1575\nF11.1\naF5.1\naF0.0\nasg8\nS\'South Texas\'\np1576\nsg18\n(lp1577\nF17.0\naF25.0\naF0.0\nasg28\n(lp1578\nI0\naI0\naI0\nasg30\nS\'Texas\'\np1579\nsg32\n(lp1580\nI0\naI0\naI0\nasg34\nI12\nsba(i__main__\nDistrict\np1581\n(dp1582\ng9\n(lp1583\nsg6\n(lp1584\nF11.1\naF5.1\naF0.0\nasg8\nS\'East Texas\'\np1585\nsg18\n(lp1586\nF17.0\naF28.0\naF0.0\nasg28\n(lp1587\nI0\naI0\naI0\nasg30\nS\'Texas\'\np1588\nsg32\n(lp1589\nI0\naI0\naI0\nasg34\nI18\nsba(i__main__\nDistrict\np1590\n(dp1591\ng9\n(lp1592\nsg6\n(lp1593\nF30.4\naF8.1\naF0.0\nasg8\nS\'Houston\'\np1594\nsg18\n(lp1595\nF45.0\naF43.0\naF0.0\nasg28\n(lp1596\nI0\naI0\naI0\nasg30\nS\'Texas\'\np1597\nsg32\n(lp1598\nI0\naI0\naI0\nasg34\nI24\nsba(i__main__\nDistrict\np1599\n(dp1600\ng9\n(lp1601\nsg6\n(lp1602\nF21.8\naF27.0\naF0.0\nasg8\nS\'Dallas-Fort Worth\'\np1603\nsg18\n(lp1604\nF60.0\naF55.0\naF0.0\nasg28\n(lp1605\nI0\naI0\naI0\nasg30\nS\'Texas\'\np1606\nsg32\n(lp1607\nI0\naI0\naI0\nasg34\nI24\nsba(i__main__\nDistrict\np1608\n(dp1609\ng9\n(lp1610\nsg6\n(lp1611\nF21.4\naF7.8\naF0.0\nasg8\nS\'San Antonio and Austin\'\np1612\nsg18\n(lp1613\nF46.0\naF21.0\naF0.0\nasg28\n(lp1614\nI0\naI0\naI0\nasg30\nS\'Texas\'\np1615\nsg32\n(lp1616\nI0\naI0\naI0\nasg34\nI15\nsbasbsS\'Nevada\'\np1617\n(i__main__\nState\np1618\n(dp1619\ng4\n(lp1620\nI2\naI0\naI2\nasg6\n(lp1621\nF16.0\naF0.0\naF84.0\nasg8\ng1617\nsg9\n(lp1622\nsg11\n(lp1623\nS\'-8\'\np1624\naS\'-8\'\np1625\naS\'-8\'\np1626\naS\'-8\'\np1627\naS\'-8\\n\'\np1628\nasg18\n(lp1629\nF192.0\naF0.0\naF1020.0\nasg20\n(lp1630\n(i__main__\nDistrict\np1631\n(dp1632\ng9\n(lp1633\nsg6\n(lp1634\nF8.0\naF0.0\naF42.1\nasg8\nS\'1st\'\np1635\nsg18\n(lp1636\nF16.0\naF0.0\naF85.0\nasg28\n(lp1637\nI0\naI0\naI0\nasg30\nS\'Nevada\'\np1638\nsg32\n(lp1639\nI0\naI0\naI0\nasg34\nI12\nsbasbsS\'Maine\'\np1640\n(i__main__\nState\np1641\n(dp1642\ng4\n(lp1643\nI1\naI0\naI1\nasg6\n(lp1644\nF27.3\naF0.0\naF72.7\nasg8\ng1640\nsg9\n(lp1645\nsg11\n(lp1646\ng1287\nag1287\nag1287\nag1287\naS\'1\\n\'\np1647\nasg18\n(lp1648\nF18.0\naF0.0\naF48.0\nasg20\n(lp1649\n(i__main__\nDistrict\np1650\n(dp1651\ng9\n(lp1652\nsg6\n(lp1653\nF2.6\naF0.0\naF7.0\nasg8\nS\'1st\'\np1654\nsg18\n(lp1655\nF3.0\naF0.0\naF8.0\nasg28\n(lp1656\nI0\naI0\naI0\nasg30\nS\'Maine\'\np1657\nsg32\n(lp1658\nI0\naI0\naI0\nasg34\nI6\nsbasbs.'
p2
aS"(dp0\nS'Vermont'\np1\nI3\nsS'Georgia'\np2\nI2\nsS'Colorado'\np3\nI3\nsS'Oklahoma'\np4\nI2\nsS'Minnesota'\np5\nI1\nsS'Virginia'\np6\nI3\nsS'Tennessee'\np7\nI1\nsS'Arkansas'\np8\nI2\nsS'Massachusetts'\np9\nI1\nsS'South Carolina'\np10\nI3\nsS'New Hampshire'\np11\nI2\nsS'Alabama'\np12\nI3\nsS'Nevada'\np13\nI3\nsS'Texas'\np14\nI1\nsS'North Dakota'\np15\nI3\ns."
p3
aS'I1\n.'
p4
aS'I6\n.'
p5
a.