(lp0
S"(dp0\nI1\n(i__main__\nPlayer\np1\n(dp2\nS'positions'\np3\n(lp4\nI0\naI0\naI0\naI0\naI0\nasS'momentum'\np5\nF137.5\nsS'name'\np6\nI1\nsS'resources'\np7\n(lp8\nI80\naF160000.0\nasS'delegateCount'\np9\nI234\nsbsI2\n(i__main__\nPlayer\np10\n(dp11\ng3\n(lp12\nI0\naI0\naI0\naI0\naI0\nasg5\nF83.75\nsg6\nI2\nsg7\n(lp13\nI80\naF160000.0\nasg9\nI138\nsbs."
p1
aS'(dp0\nS\'Mississippi\'\np1\n(i__main__\nState\np2\n(dp3\nS\'organizations\'\np4\n(lp5\nI0\naI0\nasS\'name\'\np6\ng1\nsS\'opinions\'\np7\n(lp8\nsS\'positions\'\np9\n(lp10\nS\'-4\'\np11\naS\'-4\'\np12\naS\'-4\'\np13\naS\'-4\'\np14\naS\'-4\\n\'\np15\nasS\'support\'\np16\n(lp17\nF0.0\naF0.0\nasS\'districts\'\np18\n(lp19\n(i__main__\nDistrict\np20\n(dp21\ng7\n(lp22\nsg6\nS\'1st\'\np23\nsg16\n(lp24\nF0.0\naF0.0\nasS\'adsThisTurn\'\np25\n(lp26\nI0\naI0\nasS\'state\'\np27\nS\'Mississippi\'\np28\nsS\'campaigningThisTurn\'\np29\n(lp30\nI0\naI0\nasS\'population\'\np31\nI12\nsbasbsS\'Oklahoma\'\np32\n(i__main__\nState\np33\n(dp34\ng4\n(lp35\nI0\naI0\nasg6\ng32\nsg7\n(lp36\nsg9\n(lp37\nS\'-4\'\np38\naS\'-4\'\np39\naS\'-4\'\np40\naS\'-4\'\np41\naS\'-4\\n\'\np42\nasg16\n(lp43\nF0.0\naF0.0\nasg18\n(lp44\n(i__main__\nDistrict\np45\n(dp46\ng7\n(lp47\nsg6\nS\'1st\'\np48\nsg16\n(lp49\nF0.0\naF0.0\nasg25\n(lp50\nI0\naI0\nasg27\nS\'Oklahoma\'\np51\nsg29\n(lp52\nI0\naI0\nasg31\nI15\nsbasbsS\'Delaware\'\np53\n(i__main__\nState\np54\n(dp55\ng4\n(lp56\nI0\naI0\nasg6\ng53\nsg7\n(lp57\nsg9\n(lp58\nS\'8\'\np59\nag59\nag59\nag59\naS\'8\\n\'\np60\nasg16\n(lp61\nF0.0\naF0.0\nasg18\n(lp62\n(i__main__\nDistrict\np63\n(dp64\ng7\n(lp65\nsg6\nS\'1st\'\np66\nsg16\n(lp67\nF0.0\naF0.0\nasg25\n(lp68\nI0\naI0\nasg27\nS\'Delaware\'\np69\nsg29\n(lp70\nI0\naI0\nasg31\nI3\nsbasbsS\'Minnesota\'\np71\n(i__main__\nState\np72\n(dp73\ng4\n(lp74\nI0\naI0\nasg6\ng71\nsg7\n(lp75\nsg9\n(lp76\nS\'-3\'\np77\naS\'-3\'\np78\naS\'-3\'\np79\naS\'-3\'\np80\naS\'-3\\n\'\np81\nasg16\n(lp82\nF0.0\naF0.0\nasg18\n(lp83\n(i__main__\nDistrict\np84\n(dp85\ng7\n(lp86\nsg6\nS\'Twin Cities\'\np87\nsg16\n(lp88\nF0.0\naF0.0\nasg25\n(lp89\nI0\naI0\nasg27\nS\'Minnesota\'\np90\nsg29\n(lp91\nI0\naI0\nasg31\nI12\nsba(i__main__\nDistrict\np92\n(dp93\ng7\n(lp94\nsg6\nS\'Southern Minnesota\'\np95\nsg16\n(lp96\nF0.0\naF0.0\nasg25\n(lp97\nI0\naI0\nasg27\nS\'Minnesota\'\np98\nsg29\n(lp99\nI0\naI0\nasg31\nI6\nsba(i__main__\nDistrict\np100\n(dp101\ng7\n(lp102\nsg6\nS\'Northern Minnesota\'\np103\nsg16\n(lp104\nF0.0\naF0.0\nasg25\n(lp105\nI0\naI0\nasg27\nS\'Minnesota\'\np106\nsg29\n(lp107\nI0\naI0\nasg31\nI6\nsbasbsS\'Illinois\'\np108\n(i__main__\nState\np109\n(dp110\ng4\n(lp111\nI0\naI0\nasg6\ng108\nsg7\n(lp112\nsg9\n(lp113\nS\'7\'\np114\nag114\nag114\nag114\naS\'7\\n\'\np115\nasg16\n(lp116\nF0.0\naF0.0\nasg18\n(lp117\n(i__main__\nDistrict\np118\n(dp119\ng7\n(lp120\nsg6\nS\'Chicago\'\np121\nsg16\n(lp122\nF0.0\naF0.0\nasg25\n(lp123\nI0\naI0\nasg27\nS\'Illinois\'\np124\nsg29\n(lp125\nI0\naI0\nasg31\nI12\nsba(i__main__\nDistrict\np126\n(dp127\ng7\n(lp128\nsg6\nS\'Chicago Suburbs\'\np129\nsg16\n(lp130\nF0.0\naF0.0\nasg25\n(lp131\nI0\naI0\nasg27\nS\'Illinois\'\np132\nsg29\n(lp133\nI0\naI0\nasg31\nI24\nsba(i__main__\nDistrict\np134\n(dp135\ng7\n(lp136\nsg6\nS\'Southern Illinois\'\np137\nsg16\n(lp138\nF0.0\naF0.0\nasg25\n(lp139\nI0\naI0\nasg27\nS\'Illinois\'\np140\nsg29\n(lp141\nI0\naI0\nasg31\nI9\nsba(i__main__\nDistrict\np142\n(dp143\ng7\n(lp144\nsg6\nS\'Northern Illinois\'\np145\nsg16\n(lp146\nF0.0\naF0.0\nasg25\n(lp147\nI0\naI0\nasg27\nS\'Illinois\'\np148\nsg29\n(lp149\nI0\naI0\nasg31\nI9\nsbasbsS\'Arkansas\'\np150\n(i__main__\nState\np151\n(dp152\ng4\n(lp153\nI0\naI0\nasg6\ng150\nsg7\n(lp154\nsg9\n(lp155\nS\'4\'\np156\nag156\nag156\nag156\naS\'4\\n\'\np157\nasg16\n(lp158\nF0.0\naF0.0\nasg18\n(lp159\n(i__main__\nDistrict\np160\n(dp161\ng7\n(lp162\nsg6\nS\'1st\'\np163\nsg16\n(lp164\nF0.0\naF0.0\nasg25\n(lp165\nI0\naI0\nasg27\nS\'Arkansas\'\np166\nsg29\n(lp167\nI0\naI0\nasg31\nI12\nsbasbsS\'New Mexico\'\np168\n(i__main__\nState\np169\n(dp170\ng4\n(lp171\nI0\naI0\nasg6\ng168\nsg7\n(lp172\nsg9\n(lp173\nS\'-9\'\np174\naS\'-9\'\np175\naS\'-9\'\np176\naS\'-9\'\np177\naS\'-9\\n\'\np178\nasg16\n(lp179\nF0.0\naF0.0\nasg18\n(lp180\n(i__main__\nDistrict\np181\n(dp182\ng7\n(lp183\nsg6\nS\'1st\'\np184\nsg16\n(lp185\nF0.0\naF0.0\nasg25\n(lp186\nI0\naI0\nasg27\nS\'New Mexico\'\np187\nsg29\n(lp188\nI0\naI0\nasg31\nI9\nsbasbsS\'Indiana\'\np189\n(i__main__\nState\np190\n(dp191\ng4\n(lp192\nI0\naI0\nasg6\ng189\nsg7\n(lp193\nsg9\n(lp194\nS\'6\'\np195\nag195\nag195\nag195\naS\'6\\n\'\np196\nasg16\n(lp197\nF0.0\naF0.0\nasg18\n(lp198\n(i__main__\nDistrict\np199\n(dp200\ng7\n(lp201\nsg6\nS\'Northern Indiana\'\np202\nsg16\n(lp203\nF0.0\naF0.0\nasg25\n(lp204\nI0\naI0\nasg27\nS\'Indiana\'\np205\nsg29\n(lp206\nI0\naI0\nasg31\nI9\nsba(i__main__\nDistrict\np207\n(dp208\ng7\n(lp209\nsg6\nS\'Central Indiana\'\np210\nsg16\n(lp211\nF0.0\naF0.0\nasg25\n(lp212\nI0\naI0\nasg27\nS\'Indiana\'\np213\nsg29\n(lp214\nI0\naI0\nasg31\nI9\nsba(i__main__\nDistrict\np215\n(dp216\ng7\n(lp217\nsg6\nS\'Southern Indiana\'\np218\nsg16\n(lp219\nF0.0\naF0.0\nasg25\n(lp220\nI0\naI0\nasg27\nS\'Indiana\'\np221\nsg29\n(lp222\nI0\naI0\nasg31\nI9\nsbasbsS\'Maryland\'\np223\n(i__main__\nState\np224\n(dp225\ng4\n(lp226\nI0\naI0\nasg6\ng223\nsg7\n(lp227\nsg9\n(lp228\nS\'0\'\np229\nag229\nag229\nag229\naS\'0\\n\'\np230\nasg16\n(lp231\nF0.0\naF0.0\nasg18\n(lp232\n(i__main__\nDistrict\np233\n(dp234\ng7\n(lp235\nsg6\nS\'Balitmore\'\np236\nsg16\n(lp237\nF0.0\naF0.0\nasg25\n(lp238\nI0\naI0\nasg27\nS\'Maryland\'\np239\nsg29\n(lp240\nI0\naI0\nasg31\nI9\nsba(i__main__\nDistrict\np241\n(dp242\ng7\n(lp243\nsg6\nS\'DC Suburbs and Annapolis\'\np244\nsg16\n(lp245\nF0.0\naF0.0\nasg25\n(lp246\nI0\naI0\nasg27\nS\'Maryland\'\np247\nsg29\n(lp248\nI0\naI0\nasg31\nI6\nsba(i__main__\nDistrict\np249\n(dp250\ng7\n(lp251\nsg6\nS\'Northern Maryland\'\np252\nsg16\n(lp253\nF0.0\naF0.0\nasg25\n(lp254\nI0\naI0\nasg27\nS\'Maryland\'\np255\nsg29\n(lp256\nI0\naI0\nasg31\nI9\nsbasbsS\'Louisiana\'\np257\n(i__main__\nState\np258\n(dp259\ng4\n(lp260\nI0\naI0\nasg6\ng257\nsg7\n(lp261\nsg9\n(lp262\nS\'2\'\np263\nag263\nag263\nag263\naS\'2\\n\'\np264\nasg16\n(lp265\nF0.0\naF0.0\nasg18\n(lp266\n(i__main__\nDistrict\np267\n(dp268\ng7\n(lp269\nsg6\nS\'North and Western Louisiana\'\np270\nsg16\n(lp271\nF0.0\naF0.0\nasg25\n(lp272\nI0\naI0\nasg27\nS\'Louisiana\'\np273\nsg29\n(lp274\nI0\naI0\nasg31\nI9\nsba(i__main__\nDistrict\np275\n(dp276\ng7\n(lp277\nsg6\nS\'New Orleans\'\np278\nsg16\n(lp279\nF0.0\naF0.0\nasg25\n(lp280\nI0\naI0\nasg27\nS\'Louisiana\'\np281\nsg29\n(lp282\nI0\naI0\nasg31\nI9\nsbasbsS\'Idaho\'\np283\n(i__main__\nState\np284\n(dp285\ng4\n(lp286\nI0\naI0\nasg6\ng283\nsg7\n(lp287\nsg9\n(lp288\ng59\nag59\nag59\nag59\naS\'8\\n\'\np289\nasg16\n(lp290\nF0.0\naF0.0\nasg18\n(lp291\n(i__main__\nDistrict\np292\n(dp293\ng7\n(lp294\nsg6\nS\'1st\'\np295\nsg16\n(lp296\nF0.0\naF0.0\nasg25\n(lp297\nI0\naI0\nasg27\nS\'Idaho\'\np298\nsg29\n(lp299\nI0\naI0\nasg31\nI6\nsbasbsS\'Wyoming\'\np300\n(i__main__\nState\np301\n(dp302\ng4\n(lp303\nI0\naI0\nasg6\ng300\nsg7\n(lp304\nsg9\n(lp305\nS\'10\'\np306\naS\'10\'\np307\naS\'10\'\np308\naS\'10\'\np309\naS\'10\\n\'\np310\nasg16\n(lp311\nF0.0\naF0.0\nasg18\n(lp312\n(i__main__\nDistrict\np313\n(dp314\ng7\n(lp315\nsg6\nS\'1st\'\np316\nsg16\n(lp317\nF0.0\naF0.0\nasg25\n(lp318\nI0\naI0\nasg27\nS\'Wyoming\'\np319\nsg29\n(lp320\nI0\naI0\nasg31\nI3\nsbasbsS\'Tennessee\'\np321\n(i__main__\nState\np322\n(dp323\ng4\n(lp324\nI0\naI0\nasg6\ng321\nsg7\n(lp325\nsg9\n(lp326\ng263\nag263\nag263\nag263\naS\'2\\n\'\np327\nasg16\n(lp328\nF0.0\naF0.0\nasg18\n(lp329\n(i__main__\nDistrict\np330\n(dp331\ng7\n(lp332\nsg6\nS\'Central Tennessee\'\np333\nsg16\n(lp334\nF0.0\naF0.0\nasg25\n(lp335\nI0\naI0\nasg27\nS\'Tennessee\'\np336\nsg29\n(lp337\nI0\naI0\nasg31\nI12\nsba(i__main__\nDistrict\np338\n(dp339\ng7\n(lp340\nsg6\nS\'Eastern Tennessee\'\np341\nsg16\n(lp342\nF0.0\naF0.0\nasg25\n(lp343\nI0\naI0\nasg27\nS\'Tennessee\'\np344\nsg29\n(lp345\nI0\naI0\nasg31\nI9\nsba(i__main__\nDistrict\np346\n(dp347\ng7\n(lp348\nsg6\nS\'Memphis and Western Tennessee\'\np349\nsg16\n(lp350\nF0.0\naF0.0\nasg25\n(lp351\nI0\naI0\nasg27\nS\'Tennessee\'\np352\nsg29\n(lp353\nI0\naI0\nasg31\nI6\nsbasbsS\'Arizona\'\np354\n(i__main__\nState\np355\n(dp356\ng4\n(lp357\nI0\naI0\nasg6\ng354\nsg7\n(lp358\nsg9\n(lp359\nS\'3\'\np360\nag360\nag360\nag360\naS\'3\\n\'\np361\nasg16\n(lp362\nF0.0\naF0.0\nasg18\n(lp363\n(i__main__\nDistrict\np364\n(dp365\ng7\n(lp366\nsg6\nS\'Phoenix\'\np367\nsg16\n(lp368\nF0.0\naF0.0\nasg25\n(lp369\nI0\naI0\nasg27\nS\'Arizona\'\np370\nsg29\n(lp371\nI0\naI0\nasg31\nI15\nsba(i__main__\nDistrict\np372\n(dp373\ng7\n(lp374\nsg6\nS\'Southern Arizona\'\np375\nsg16\n(lp376\nF0.0\naF0.0\nasg25\n(lp377\nI0\naI0\nasg27\nS\'Arizona\'\np378\nsg29\n(lp379\nI0\naI0\nasg31\nI6\nsba(i__main__\nDistrict\np380\n(dp381\ng7\n(lp382\nsg6\nS\'Northern Arizona\'\np383\nsg16\n(lp384\nF0.0\naF0.0\nasg25\n(lp385\nI0\naI0\nasg27\nS\'Arizona\'\np386\nsg29\n(lp387\nI0\naI0\nasg31\nI6\nsbasbsS\'Iowa\'\np388\n(i__main__\nState\np389\n(dp390\ng4\n(lp391\nI0\naI0\nasg6\ng388\nsg7\n(lp392\nsg9\n(lp393\nS\'5\'\np394\nag394\nag394\nag394\naS\'5\\n\'\np395\nasg16\n(lp396\nF0.0\naF0.0\nasg18\n(lp397\n(i__main__\nDistrict\np398\n(dp399\ng7\n(lp400\nsg6\nS\'1st\'\np401\nsg16\n(lp402\nF0.0\naF0.0\nasg25\n(lp403\nI0\naI0\nasg27\nS\'Iowa\'\np404\nsg29\n(lp405\nI0\naI0\nasg31\nI12\nsbasbsS\'Michigan\'\np406\n(i__main__\nState\np407\n(dp408\ng4\n(lp409\nI0\naI0\nasg6\ng406\nsg7\n(lp410\nsg9\n(lp411\nS\'-2\'\np412\naS\'-2\'\np413\naS\'-2\'\np414\naS\'-2\'\np415\naS\'-2\\n\'\np416\nasg16\n(lp417\nF0.0\naF0.0\nasg18\n(lp418\n(i__main__\nDistrict\np419\n(dp420\ng7\n(lp421\nsg6\nS\'Detroit\'\np422\nsg16\n(lp423\nF0.0\naF0.0\nasg25\n(lp424\nI0\naI0\nasg27\nS\'Michigan\'\np425\nsg29\n(lp426\nI0\naI0\nasg31\nI15\nsba(i__main__\nDistrict\np427\n(dp428\ng7\n(lp429\nsg6\nS\'Southwest Michigan\'\np430\nsg16\n(lp431\nF0.0\naF0.0\nasg25\n(lp432\nI0\naI0\nasg27\nS\'Michigan\'\np433\nsg29\n(lp434\nI0\naI0\nasg31\nI12\nsba(i__main__\nDistrict\np435\n(dp436\ng7\n(lp437\nsg6\nS"Michigan\'s Rust Belt"\np438\nsg16\n(lp439\nF0.0\naF0.0\nasg25\n(lp440\nI0\naI0\nasg27\nS\'Michigan\'\np441\nsg29\n(lp442\nI0\naI0\nasg31\nI12\nsba(i__main__\nDistrict\np443\n(dp444\ng7\n(lp445\nsg6\nS\'Northern Michigan\'\np446\nsg16\n(lp447\nF0.0\naF0.0\nasg25\n(lp448\nI0\naI0\nasg27\nS\'Michigan\'\np449\nsg29\n(lp450\nI0\naI0\nasg31\nI3\nsbasbsS\'Kansas\'\np451\n(i__main__\nState\np452\n(dp453\ng4\n(lp454\nI0\naI0\nasg6\ng451\nsg7\n(lp455\nsg9\n(lp456\ng156\nag156\nag156\nag156\naS\'4\\n\'\np457\nasg16\n(lp458\nF0.0\naF0.0\nasg18\n(lp459\n(i__main__\nDistrict\np460\n(dp461\ng7\n(lp462\nsg6\nS\'1st\'\np463\nsg16\n(lp464\nF0.0\naF0.0\nasg25\n(lp465\nI0\naI0\nasg27\nS\'Kansas\'\np466\nsg29\n(lp467\nI0\naI0\nasg31\nI12\nsbasbsS\'Utah\'\np468\n(i__main__\nState\np469\n(dp470\ng4\n(lp471\nI0\naI0\nasg6\ng468\nsg7\n(lp472\nsg9\n(lp473\ng156\nag156\nag156\nag156\naS\'4\\n\'\np474\nasg16\n(lp475\nF0.0\naF0.0\nasg18\n(lp476\n(i__main__\nDistrict\np477\n(dp478\ng7\n(lp479\nsg6\nS\'1st\'\np480\nsg16\n(lp481\nF0.0\naF0.0\nasg25\n(lp482\nI0\naI0\nasg27\nS\'Utah\'\np483\nsg29\n(lp484\nI0\naI0\nasg31\nI12\nsbasbsS\'Virginia\'\np485\n(i__main__\nState\np486\n(dp487\ng4\n(lp488\nI0\naI0\nasg6\ng485\nsg7\n(lp489\nsg9\n(lp490\ng195\nag195\nag195\nag195\naS\'6\\n\'\np491\nasg16\n(lp492\nF0.0\naF0.0\nasg18\n(lp493\n(i__main__\nDistrict\np494\n(dp495\ng7\n(lp496\nsg6\nS\'DC Suburbs\'\np497\nsg16\n(lp498\nF0.0\naF0.0\nasg25\n(lp499\nI0\naI0\nasg27\nS\'Virginia\'\np500\nsg29\n(lp501\nI0\naI0\nasg31\nI9\nsba(i__main__\nDistrict\np502\n(dp503\ng7\n(lp504\nsg6\nS\'Virginia Coast\'\np505\nsg16\n(lp506\nF0.0\naF0.0\nasg25\n(lp507\nI0\naI0\nasg27\nS\'Virginia\'\np508\nsg29\n(lp509\nI0\naI0\nasg31\nI15\nsba(i__main__\nDistrict\np510\n(dp511\ng7\n(lp512\nsg6\nS\'Western Virginia\'\np513\nsg16\n(lp514\nF0.0\naF0.0\nasg25\n(lp515\nI0\naI0\nasg27\nS\'Virginia\'\np516\nsg29\n(lp517\nI0\naI0\nasg31\nI9\nsbasbsS\'Oregon\'\np518\n(i__main__\nState\np519\n(dp520\ng4\n(lp521\nI0\naI0\nasg6\ng518\nsg7\n(lp522\nsg9\n(lp523\nS\'-3\'\np524\naS\'-3\'\np525\naS\'-3\'\np526\naS\'-3\'\np527\naS\'-3\\n\'\np528\nasg16\n(lp529\nF0.0\naF0.0\nasg18\n(lp530\n(i__main__\nDistrict\np531\n(dp532\ng7\n(lp533\nsg6\nS\'Portland and Salem\'\np534\nsg16\n(lp535\nF0.0\naF0.0\nasg25\n(lp536\nI0\naI0\nasg27\nS\'Oregon\'\np537\nsg29\n(lp538\nI0\naI0\nasg31\nI9\nsba(i__main__\nDistrict\np539\n(dp540\ng7\n(lp541\nsg6\nS\'Southern and Easthern Oregon\'\np542\nsg16\n(lp543\nF0.0\naF0.0\nasg25\n(lp544\nI0\naI0\nasg27\nS\'Oregon\'\np545\nsg29\n(lp546\nI0\naI0\nasg31\nI6\nsbasbsS\'Connecticut\'\np547\n(i__main__\nState\np548\n(dp549\ng4\n(lp550\nI0\naI0\nasg6\ng547\nsg7\n(lp551\nsg9\n(lp552\ng114\nag114\nag114\nag114\naS\'7\\n\'\np553\nasg16\n(lp554\nF0.0\naF0.0\nasg18\n(lp555\n(i__main__\nDistrict\np556\n(dp557\ng7\n(lp558\nsg6\nS\'New York Suburbs\'\np559\nsg16\n(lp560\nF0.0\naF0.0\nasg25\n(lp561\nI0\naI0\nasg27\nS\'Connecticut\'\np562\nsg29\n(lp563\nI0\naI0\nasg31\nI6\nsba(i__main__\nDistrict\np564\n(dp565\ng7\n(lp566\nsg6\nS\'North-East Connecticut\'\np567\nsg16\n(lp568\nF0.0\naF0.0\nasg25\n(lp569\nI0\naI0\nasg27\nS\'Connecticut\'\np570\nsg29\n(lp571\nI0\naI0\nasg31\nI9\nsbasbsS\'Montana\'\np572\n(i__main__\nState\np573\n(dp574\ng4\n(lp575\nI0\naI0\nasg6\ng572\nsg7\n(lp576\nsg9\n(lp577\nS\'-6\'\np578\naS\'-6\'\np579\naS\'-6\'\np580\naS\'-6\'\np581\naS\'-6\\n\'\np582\nasg16\n(lp583\nF0.0\naF0.0\nasg18\n(lp584\n(i__main__\nDistrict\np585\n(dp586\ng7\n(lp587\nsg6\nS\'1st\'\np588\nsg16\n(lp589\nF0.0\naF0.0\nasg25\n(lp590\nI0\naI0\nasg27\nS\'Montana\'\np591\nsg29\n(lp592\nI0\naI0\nasg31\nI3\nsbasbsS\'California\'\np593\n(i__main__\nState\np594\n(dp595\ng4\n(lp596\nI0\naI0\nasg6\ng593\nsg7\n(lp597\nsg9\n(lp598\ng394\nag394\nag394\nag394\naS\'5\\n\'\np599\nasg16\n(lp600\nF0.0\naF0.0\nasg18\n(lp601\n(i__main__\nDistrict\np602\n(dp603\ng7\n(lp604\nsg6\nS\'San Diego\'\np605\nsg16\n(lp606\nF0.0\naF0.0\nasg25\n(lp607\nI0\naI0\nasg27\nS\'California\'\np608\nsg29\n(lp609\nI0\naI0\nasg31\nI15\nsba(i__main__\nDistrict\np610\n(dp611\ng7\n(lp612\nsg6\nS\'Orange County and the Inland Empire\'\np613\nsg16\n(lp614\nF0.0\naF0.0\nasg25\n(lp615\nI0\naI0\nasg27\nS\'California\'\np616\nsg29\n(lp617\nI0\naI0\nasg31\nI21\nsba(i__main__\nDistrict\np618\n(dp619\ng7\n(lp620\nsg6\nS\'Los Angeles\'\np621\nsg16\n(lp622\nF0.0\naF0.0\nasg25\n(lp623\nI0\naI0\nasg27\nS\'California\'\np624\nsg29\n(lp625\nI0\naI0\nasg31\nI45\nsba(i__main__\nDistrict\np626\n(dp627\ng7\n(lp628\nsg6\nS\'Central Coast\'\np629\nsg16\n(lp630\nF0.0\naF0.0\nasg25\n(lp631\nI0\naI0\nasg27\nS\'California\'\np632\nsg29\n(lp633\nI0\naI0\nasg31\nI12\nsba(i__main__\nDistrict\np634\n(dp635\ng7\n(lp636\nsg6\nS\'Bay Area\'\np637\nsg16\n(lp638\nF0.0\naF0.0\nasg25\n(lp639\nI0\naI0\nasg27\nS\'California\'\np640\nsg29\n(lp641\nI0\naI0\nasg31\nI24\nsba(i__main__\nDistrict\np642\n(dp643\ng7\n(lp644\nsg6\nS\'Central Valley\'\np645\nsg16\n(lp646\nF0.0\naF0.0\nasg25\n(lp647\nI0\naI0\nasg27\nS\'California\'\np648\nsg29\n(lp649\nI0\naI0\nasg31\nI24\nsba(i__main__\nDistrict\np650\n(dp651\ng7\n(lp652\nsg6\nS\'Northern California and the Sierras\'\np653\nsg16\n(lp654\nF0.0\naF0.0\nasg25\n(lp655\nI0\naI0\nasg27\nS\'California\'\np656\nsg29\n(lp657\nI0\naI0\nasg31\nI18\nsbasbsS\'Massachusetts\'\np658\n(i__main__\nState\np659\n(dp660\ng4\n(lp661\nI0\naI0\nasg6\ng658\nsg7\n(lp662\nsg9\n(lp663\nS\'-1\'\np664\naS\'-1\'\np665\naS\'-1\'\np666\naS\'-1\'\np667\naS\'-1\\n\'\np668\nasg16\n(lp669\nF0.0\naF0.0\nasg18\n(lp670\n(i__main__\nDistrict\np671\n(dp672\ng7\n(lp673\nsg6\nS\'Boston\'\np674\nsg16\n(lp675\nF0.0\naF0.0\nasg25\n(lp676\nI0\naI0\nasg27\nS\'Massachusetts\'\np677\nsg29\n(lp678\nI0\naI0\nasg31\nI12\nsba(i__main__\nDistrict\np679\n(dp680\ng7\n(lp681\nsg6\nS\'Southeast Massachusetts\'\np682\nsg16\n(lp683\nF0.0\naF0.0\nasg25\n(lp684\nI0\naI0\nasg27\nS\'Massachusetts\'\np685\nsg29\n(lp686\nI0\naI0\nasg31\nI9\nsba(i__main__\nDistrict\np687\n(dp688\ng7\n(lp689\nsg6\nS\'Western Massachusetts\'\np690\nsg16\n(lp691\nF0.0\naF0.0\nasg25\n(lp692\nI0\naI0\nasg27\nS\'Massachusetts\'\np693\nsg29\n(lp694\nI0\naI0\nasg31\nI9\nsbasbsS\'West Virginia\'\np695\n(i__main__\nState\np696\n(dp697\ng4\n(lp698\nI0\naI0\nasg6\ng695\nsg7\n(lp699\nsg9\n(lp700\ng59\nag59\nag59\nag59\naS\'8\\n\'\np701\nasg16\n(lp702\nF0.0\naF0.0\nasg18\n(lp703\n(i__main__\nDistrict\np704\n(dp705\ng7\n(lp706\nsg6\nS\'1st\'\np707\nsg16\n(lp708\nF0.0\naF0.0\nasg25\n(lp709\nI0\naI0\nasg27\nS\'West Virginia\'\np710\nsg29\n(lp711\nI0\naI0\nasg31\nI9\nsbasbsS\'South Carolina\'\np712\n(i__main__\nState\np713\n(dp714\ng4\n(lp715\nI0\naI0\nasg6\ng712\nsg7\n(lp716\nsg9\n(lp717\ng229\nag229\nag229\nag229\naS\'0\\n\'\np718\nasg16\n(lp719\nF0.0\naF0.0\nasg18\n(lp720\n(i__main__\nDistrict\np721\n(dp722\ng7\n(lp723\nsg6\nS\'Inland South Carolina\'\np724\nsg16\n(lp725\nF0.0\naF0.0\nasg25\n(lp726\nI0\naI0\nasg27\nS\'South Carolina\'\np727\nsg29\n(lp728\nI0\naI0\nasg31\nI12\nsba(i__main__\nDistrict\np729\n(dp730\ng7\n(lp731\nsg6\nS\'Coastal South Carolina\'\np732\nsg16\n(lp733\nF0.0\naF0.0\nasg25\n(lp734\nI0\naI0\nasg27\nS\'South Carolina\'\np735\nsg29\n(lp736\nI0\naI0\nasg31\nI9\nsbasbsS\'New Hampshire\'\np737\n(i__main__\nState\np738\n(dp739\ng4\n(lp740\nI0\naI0\nasg6\ng737\nsg7\n(lp741\nsg9\n(lp742\nS\'-9\'\np743\naS\'-9\'\np744\naS\'-9\'\np745\naS\'-9\'\np746\naS\'-9\\n\'\np747\nasg16\n(lp748\nF0.0\naF0.0\nasg18\n(lp749\n(i__main__\nDistrict\np750\n(dp751\ng7\n(lp752\nsg6\nS\'1st\'\np753\nsg16\n(lp754\nF0.0\naF0.0\nasg25\n(lp755\nI0\naI0\nasg27\nS\'New Hampshire\'\np756\nsg29\n(lp757\nI0\naI0\nasg31\nI6\nsbasbsS\'Wisconsin\'\np758\n(i__main__\nState\np759\n(dp760\ng4\n(lp761\nI0\naI0\nasg6\ng758\nsg7\n(lp762\nsg9\n(lp763\nS\'9\'\np764\nag764\nag764\nag764\naS\'9\\n\'\np765\nasg16\n(lp766\nF0.0\naF0.0\nasg18\n(lp767\n(i__main__\nDistrict\np768\n(dp769\ng7\n(lp770\nsg6\nS\'Milwaukee\'\np771\nsg16\n(lp772\nF0.0\naF0.0\nasg25\n(lp773\nI0\naI0\nasg27\nS\'Wisconsin\'\np774\nsg29\n(lp775\nI0\naI0\nasg31\nI9\nsba(i__main__\nDistrict\np776\n(dp777\ng7\n(lp778\nsg6\nS\'Northern Wisconsin\'\np779\nsg16\n(lp780\nF0.0\naF0.0\nasg25\n(lp781\nI0\naI0\nasg27\nS\'Wisconsin\'\np782\nsg29\n(lp783\nI0\naI0\nasg31\nI6\nsba(i__main__\nDistrict\np784\n(dp785\ng7\n(lp786\nsg6\nS\'Central Wisconsin\'\np787\nsg16\n(lp788\nF0.0\naF0.0\nasg25\n(lp789\nI0\naI0\nasg27\nS\'Wisconsin\'\np790\nsg29\n(lp791\nI0\naI0\nasg31\nI9\nsbasbsS\'Vermont\'\np792\n(i__main__\nState\np793\n(dp794\ng4\n(lp795\nI0\naI0\nasg6\ng792\nsg7\n(lp796\nsg9\n(lp797\ng394\nag394\nag394\nag394\naS\'5\\n\'\np798\nasg16\n(lp799\nF0.0\naF0.0\nasg18\n(lp800\n(i__main__\nDistrict\np801\n(dp802\ng7\n(lp803\nsg6\nS\'1st\'\np804\nsg16\n(lp805\nF0.0\naF0.0\nasg25\n(lp806\nI0\naI0\nasg27\nS\'Vermont\'\np807\nsg29\n(lp808\nI0\naI0\nasg31\nI3\nsbasbsS\'Georgia\'\np809\n(i__main__\nState\np810\n(dp811\ng4\n(lp812\nI0\naI0\nasg6\ng809\nsg7\n(lp813\nsg9\n(lp814\nS\'10\'\np815\naS\'10\'\np816\naS\'10\'\np817\naS\'10\'\np818\naS\'10\\n\'\np819\nasg16\n(lp820\nF0.0\naF0.0\nasg18\n(lp821\n(i__main__\nDistrict\np822\n(dp823\ng7\n(lp824\nsg6\nS\'Atlanta\'\np825\nsg16\n(lp826\nF0.0\naF0.0\nasg25\n(lp827\nI0\naI0\nasg27\nS\'Georgia\'\np828\nsg29\n(lp829\nI0\naI0\nasg31\nI18\nsba(i__main__\nDistrict\np830\n(dp831\ng7\n(lp832\nsg6\nS\'Northern Georgia\'\np833\nsg16\n(lp834\nF0.0\naF0.0\nasg25\n(lp835\nI0\naI0\nasg27\nS\'Georgia\'\np836\nsg29\n(lp837\nI0\naI0\nasg31\nI12\nsba(i__main__\nDistrict\np838\n(dp839\ng7\n(lp840\nsg6\nS\'Southern Georgia\'\np841\nsg16\n(lp842\nF0.0\naF0.0\nasg25\n(lp843\nI0\naI0\nasg27\nS\'Georgia\'\np844\nsg29\n(lp845\nI0\naI0\nasg31\nI12\nsbasbsS\'North Dakota\'\np846\n(i__main__\nState\np847\n(dp848\ng4\n(lp849\nI0\naI0\nasg6\ng846\nsg7\n(lp850\nsg9\n(lp851\nS\'-6\'\np852\naS\'-6\'\np853\naS\'-6\'\np854\naS\'-6\'\np855\naS\'-6\\n\'\np856\nasg16\n(lp857\nF0.0\naF0.0\nasg18\n(lp858\n(i__main__\nDistrict\np859\n(dp860\ng7\n(lp861\nsg6\nS\'1st\'\np862\nsg16\n(lp863\nF0.0\naF0.0\nasg25\n(lp864\nI0\naI0\nasg27\nS\'North Dakota\'\np865\nsg29\n(lp866\nI0\naI0\nasg31\nI3\nsbasbsS\'Pennsylvania\'\np867\n(i__main__\nState\np868\n(dp869\ng4\n(lp870\nI0\naI0\nasg6\ng867\nsg7\n(lp871\nsg9\n(lp872\nS\'-2\'\np873\naS\'-2\'\np874\naS\'-2\'\np875\naS\'-2\'\np876\naS\'-2\\n\'\np877\nasg16\n(lp878\nF0.0\naF0.0\nasg18\n(lp879\n(i__main__\nDistrict\np880\n(dp881\ng7\n(lp882\nsg6\nS\'Central Pennsylvania\'\np883\nsg16\n(lp884\nF0.0\naF0.0\nasg25\n(lp885\nI0\naI0\nasg27\nS\'Pennsylvania\'\np886\nsg29\n(lp887\nI0\naI0\nasg31\nI12\nsba(i__main__\nDistrict\np888\n(dp889\ng7\n(lp890\nsg6\nS\'Philadelphia\'\np891\nsg16\n(lp892\nF0.0\naF0.0\nasg25\n(lp893\nI0\naI0\nasg27\nS\'Pennsylvania\'\np894\nsg29\n(lp895\nI0\naI0\nasg31\nI18\nsba(i__main__\nDistrict\np896\n(dp897\ng7\n(lp898\nsg6\nS\'Pittsburg\'\np899\nsg16\n(lp900\nF0.0\naF0.0\nasg25\n(lp901\nI0\naI0\nasg27\nS\'Pennsylvania\'\np902\nsg29\n(lp903\nI0\naI0\nasg31\nI12\nsba(i__main__\nDistrict\np904\n(dp905\ng7\n(lp906\nsg6\nS\'Northeast Pennsylvania\'\np907\nsg16\n(lp908\nF0.0\naF0.0\nasg25\n(lp909\nI0\naI0\nasg27\nS\'Pennsylvania\'\np910\nsg29\n(lp911\nI0\naI0\nasg31\nI12\nsbasbsS\'Florida\'\np912\n(i__main__\nState\np913\n(dp914\ng4\n(lp915\nI0\naI0\nasg6\ng912\nsg7\n(lp916\nsg9\n(lp917\ng764\nag764\nag764\nag764\naS\'9\\n\'\np918\nasg16\n(lp919\nF0.0\naF0.0\nasg18\n(lp920\n(i__main__\nDistrict\np921\n(dp922\ng7\n(lp923\nsg6\nS\'The Panhandle\'\np924\nsg16\n(lp925\nF0.0\naF0.0\nasg25\n(lp926\nI0\naI0\nasg27\nS\'Florida\'\np927\nsg29\n(lp928\nI0\naI0\nasg31\nI12\nsba(i__main__\nDistrict\np929\n(dp930\ng7\n(lp931\nsg6\nS\'Jacksonville and Daytona Beach\'\np932\nsg16\n(lp933\nF0.0\naF0.0\nasg25\n(lp934\nI0\naI0\nasg27\nS\'Florida\'\np935\nsg29\n(lp936\nI0\naI0\nasg31\nI9\nsba(i__main__\nDistrict\np937\n(dp938\ng7\n(lp939\nsg6\nS\'Orlando and the mid-coast\'\np940\nsg16\n(lp941\nF0.0\naF0.0\nasg25\n(lp942\nI0\naI0\nasg27\nS\'Florida\'\np943\nsg29\n(lp944\nI0\naI0\nasg31\nI12\nsba(i__main__\nDistrict\np945\n(dp946\ng7\n(lp947\nsg6\nS\'Tampa and St. Petersburg\'\np948\nsg16\n(lp949\nF0.0\naF0.0\nasg25\n(lp950\nI0\naI0\nasg27\nS\'Florida\'\np951\nsg29\n(lp952\nI0\naI0\nasg31\nI15\nsba(i__main__\nDistrict\np953\n(dp954\ng7\n(lp955\nsg6\nS\'Miami and West Palm Beach\'\np956\nsg16\n(lp957\nF0.0\naF0.0\nasg25\n(lp958\nI0\naI0\nasg27\nS\'Florida\'\np959\nsg29\n(lp960\nI0\naI0\nasg31\nI21\nsba(i__main__\nDistrict\np961\n(dp962\ng7\n(lp963\nsg6\nS\'Southwest Florida\'\np964\nsg16\n(lp965\nF0.0\naF0.0\nasg25\n(lp966\nI0\naI0\nasg27\nS\'Florida\'\np967\nsg29\n(lp968\nI0\naI0\nasg31\nI12\nsbasbsS\'Alaska\'\np969\n(i__main__\nState\np970\n(dp971\ng4\n(lp972\nI0\naI0\nasg6\ng969\nsg7\n(lp973\nsg9\n(lp974\ng263\nag263\nag263\nag263\naS\'2\\n\'\np975\nasg16\n(lp976\nF0.0\naF0.0\nasg18\n(lp977\n(i__main__\nDistrict\np978\n(dp979\ng7\n(lp980\nsg6\nS\'1st\'\np981\nsg16\n(lp982\nF0.0\naF0.0\nasg25\n(lp983\nI0\naI0\nasg27\nS\'Alaska\'\np984\nsg29\n(lp985\nI0\naI0\nasg31\nI3\nsbasbsS\'Kentucky\'\np986\n(i__main__\nState\np987\n(dp988\ng4\n(lp989\nI0\naI0\nasg6\ng986\nsg7\n(lp990\nsg9\n(lp991\ng360\nag360\nag360\nag360\naS\'3\\n\'\np992\nasg16\n(lp993\nF0.0\naF0.0\nasg18\n(lp994\n(i__main__\nDistrict\np995\n(dp996\ng7\n(lp997\nsg6\nS\'Louisville and Lexington\'\np998\nsg16\n(lp999\nF0.0\naF0.0\nasg25\n(lp1000\nI0\naI0\nasg27\nS\'Kentucky\'\np1001\nsg29\n(lp1002\nI0\naI0\nasg31\nI9\nsba(i__main__\nDistrict\np1003\n(dp1004\ng7\n(lp1005\nsg6\nS\'Southern Kentucky\'\np1006\nsg16\n(lp1007\nF0.0\naF0.0\nasg25\n(lp1008\nI0\naI0\nasg27\nS\'Kentucky\'\np1009\nsg29\n(lp1010\nI0\naI0\nasg31\nI9\nsbasbsS\'Hawaii\'\np1011\n(i__main__\nState\np1012\n(dp1013\ng4\n(lp1014\nI0\naI0\nasg6\ng1011\nsg7\n(lp1015\nsg9\n(lp1016\ng764\nag764\nag764\nag764\naS\'9\\n\'\np1017\nasg16\n(lp1018\nF0.0\naF0.0\nasg18\n(lp1019\n(i__main__\nDistrict\np1020\n(dp1021\ng7\n(lp1022\nsg6\nS\'1st\'\np1023\nsg16\n(lp1024\nF0.0\naF0.0\nasg25\n(lp1025\nI0\naI0\nasg27\nS\'Hawaii\'\np1026\nsg29\n(lp1027\nI0\naI0\nasg31\nI6\nsbasbsS\'Nebraska\'\np1028\n(i__main__\nState\np1029\n(dp1030\ng4\n(lp1031\nI0\naI0\nasg6\ng1028\nsg7\n(lp1032\nsg9\n(lp1033\nS\'-7\'\np1034\naS\'-7\'\np1035\naS\'-7\'\np1036\naS\'-7\'\np1037\naS\'-7\\n\'\np1038\nasg16\n(lp1039\nF0.0\naF0.0\nasg18\n(lp1040\n(i__main__\nDistrict\np1041\n(dp1042\ng7\n(lp1043\nsg6\nS\'1st\'\np1044\nsg16\n(lp1045\nF0.0\naF0.0\nasg25\n(lp1046\nI0\naI0\nasg27\nS\'Nebraska\'\np1047\nsg29\n(lp1048\nI0\naI0\nasg31\nI9\nsbasbsS\'Missouri\'\np1049\n(i__main__\nState\np1050\n(dp1051\ng4\n(lp1052\nI0\naI0\nasg6\ng1049\nsg7\n(lp1053\nsg9\n(lp1054\nS\'-5\'\np1055\naS\'-5\'\np1056\naS\'-5\'\np1057\naS\'-5\'\np1058\naS\'-5\\n\'\np1059\nasg16\n(lp1060\nF0.0\naF0.0\nasg18\n(lp1061\n(i__main__\nDistrict\np1062\n(dp1063\ng7\n(lp1064\nsg6\nS\'Kansas City and Northern Missouri\'\np1065\nsg16\n(lp1066\nF0.0\naF0.0\nasg25\n(lp1067\nI0\naI0\nasg27\nS\'Missouri\'\np1068\nsg29\n(lp1069\nI0\naI0\nasg31\nI6\nsba(i__main__\nDistrict\np1070\n(dp1071\ng7\n(lp1072\nsg6\nS\'Southern Missouri\'\np1073\nsg16\n(lp1074\nF0.0\naF0.0\nasg25\n(lp1075\nI0\naI0\nasg27\nS\'Missouri\'\np1076\nsg29\n(lp1077\nI0\naI0\nasg31\nI9\nsba(i__main__\nDistrict\np1078\n(dp1079\ng7\n(lp1080\nsg6\nS\'St. Louis\'\np1081\nsg16\n(lp1082\nF0.0\naF0.0\nasg25\n(lp1083\nI0\naI0\nasg27\nS\'Missouri\'\np1084\nsg29\n(lp1085\nI0\naI0\nasg31\nI9\nsbasbsS\'Ohio\'\np1086\n(i__main__\nState\np1087\n(dp1088\ng4\n(lp1089\nI0\naI0\nasg6\ng1086\nsg7\n(lp1090\nsg9\n(lp1091\nS\'-5\'\np1092\naS\'-5\'\np1093\naS\'-5\'\np1094\naS\'-5\'\np1095\naS\'-5\\n\'\np1096\nasg16\n(lp1097\nF0.0\naF0.0\nasg18\n(lp1098\n(i__main__\nDistrict\np1099\n(dp1100\ng7\n(lp1101\nsg6\nS\'Toledo and the Northwest\'\np1102\nsg16\n(lp1103\nF0.0\naF0.0\nasg25\n(lp1104\nI0\naI0\nasg27\nS\'Ohio\'\np1105\nsg29\n(lp1106\nI0\naI0\nasg31\nI9\nsba(i__main__\nDistrict\np1107\n(dp1108\ng7\n(lp1109\nsg6\nS\'Cleveland and the Northeast\'\np1110\nsg16\n(lp1111\nF0.0\naF0.0\nasg25\n(lp1112\nI0\naI0\nasg27\nS\'Ohio\'\np1113\nsg29\n(lp1114\nI0\naI0\nasg31\nI15\nsba(i__main__\nDistrict\np1115\n(dp1116\ng7\n(lp1117\nsg6\nS\'Columbus and the Southeast\'\np1118\nsg16\n(lp1119\nF0.0\naF0.0\nasg25\n(lp1120\nI0\naI0\nasg27\nS\'Ohio\'\np1121\nsg29\n(lp1122\nI0\naI0\nasg31\nI12\nsba(i__main__\nDistrict\np1123\n(dp1124\ng7\n(lp1125\nsg6\nS\'Cincinnati and Dayton\'\np1126\nsg16\n(lp1127\nF0.0\naF0.0\nasg25\n(lp1128\nI0\naI0\nasg27\nS\'Ohio\'\np1129\nsg29\n(lp1130\nI0\naI0\nasg31\nI12\nsbasbsS\'Alabama\'\np1131\n(i__main__\nState\np1132\n(dp1133\ng4\n(lp1134\nI0\naI0\nasg6\ng1131\nsg7\n(lp1135\nsg9\n(lp1136\nS\'1\'\np1137\nag1137\nag1137\nag1137\naS\'1\\n\'\np1138\nasg16\n(lp1139\nF0.0\naF0.0\nasg18\n(lp1140\n(i__main__\nDistrict\np1141\n(dp1142\ng7\n(lp1143\nsg6\nS\'Northern Alabama\'\np1144\nsg16\n(lp1145\nF0.0\naF0.0\nasg25\n(lp1146\nI0\naI0\nasg27\nS\'Alabama\'\np1147\nsg29\n(lp1148\nI0\naI0\nasg31\nI6\nsba(i__main__\nDistrict\np1149\n(dp1150\ng7\n(lp1151\nsg6\nS\'Central Alabama\'\np1152\nsg16\n(lp1153\nF0.0\naF0.0\nasg25\n(lp1154\nI0\naI0\nasg27\nS\'Alabama\'\np1155\nsg29\n(lp1156\nI0\naI0\nasg31\nI9\nsba(i__main__\nDistrict\np1157\n(dp1158\ng7\n(lp1159\nsg6\nS\'Southern Alabama\'\np1160\nsg16\n(lp1161\nF0.0\naF0.0\nasg25\n(lp1162\nI0\naI0\nasg27\nS\'Alabama\'\np1163\nsg29\n(lp1164\nI0\naI0\nasg31\nI6\nsbasbsS\'Rhode Island\'\np1165\n(i__main__\nState\np1166\n(dp1167\ng4\n(lp1168\nI0\naI0\nasg6\ng1165\nsg7\n(lp1169\nsg9\n(lp1170\nS\'-1\'\np1171\naS\'-1\'\np1172\naS\'-1\'\np1173\naS\'-1\'\np1174\naS\'-1\\n\'\np1175\nasg16\n(lp1176\nF0.0\naF0.0\nasg18\n(lp1177\n(i__main__\nDistrict\np1178\n(dp1179\ng7\n(lp1180\nsg6\nS\'1st\'\np1181\nsg16\n(lp1182\nF0.0\naF0.0\nasg25\n(lp1183\nI0\naI0\nasg27\nS\'Rhode Island\'\np1184\nsg29\n(lp1185\nI0\naI0\nasg31\nI6\nsbasbsS\'South Dakota\'\np1186\n(i__main__\nState\np1187\n(dp1188\ng4\n(lp1189\nI0\naI0\nasg6\ng1186\nsg7\n(lp1190\nsg9\n(lp1191\ng1137\nag1137\nag1137\nag1137\naS\'1\\n\'\np1192\nasg16\n(lp1193\nF0.0\naF0.0\nasg18\n(lp1194\n(i__main__\nDistrict\np1195\n(dp1196\ng7\n(lp1197\nsg6\nS\'1st\'\np1198\nsg16\n(lp1199\nF0.0\naF0.0\nasg25\n(lp1200\nI0\naI0\nasg27\nS\'South Dakota\'\np1201\nsg29\n(lp1202\nI0\naI0\nasg31\nI3\nsbasbsS\'Colorado\'\np1203\n(i__main__\nState\np1204\n(dp1205\ng4\n(lp1206\nI0\naI0\nasg6\ng1203\nsg7\n(lp1207\nsg9\n(lp1208\ng195\nag195\nag195\nag195\naS\'6\\n\'\np1209\nasg16\n(lp1210\nF0.0\naF0.0\nasg18\n(lp1211\n(i__main__\nDistrict\np1212\n(dp1213\ng7\n(lp1214\nsg6\nS\'Denver and the Northern Front Range\'\np1215\nsg16\n(lp1216\nF0.0\naF0.0\nasg25\n(lp1217\nI0\naI0\nasg27\nS\'Colorado\'\np1218\nsg29\n(lp1219\nI0\naI0\nasg31\nI12\nsba(i__main__\nDistrict\np1220\n(dp1221\ng7\n(lp1222\nsg6\nS\'The Rest of Colorado\'\np1223\nsg16\n(lp1224\nF0.0\naF0.0\nasg25\n(lp1225\nI0\naI0\nasg27\nS\'Colorado\'\np1226\nsg29\n(lp1227\nI0\naI0\nasg31\nI9\nsbasbsS\'New Jersey\'\np1228\n(i__main__\nState\np1229\n(dp1230\ng4\n(lp1231\nI0\naI0\nasg6\ng1228\nsg7\n(lp1232\nsg9\n(lp1233\nS\'-10\'\np1234\naS\'-10\'\np1235\naS\'-10\'\np1236\naS\'-10\'\np1237\naS\'-10\\n\'\np1238\nasg16\n(lp1239\nF0.0\naF0.0\nasg18\n(lp1240\n(i__main__\nDistrict\np1241\n(dp1242\ng7\n(lp1243\nsg6\nS\'Newark\'\np1244\nsg16\n(lp1245\nF0.0\naF0.0\nasg25\n(lp1246\nI0\naI0\nasg27\nS\'New Jersey\'\np1247\nsg29\n(lp1248\nI0\naI0\nasg31\nI15\nsba(i__main__\nDistrict\np1249\n(dp1250\ng7\n(lp1251\nsg6\nS\'Cental New Jersey\'\np1252\nsg16\n(lp1253\nF0.0\naF0.0\nasg25\n(lp1254\nI0\naI0\nasg27\nS\'New Jersey\'\np1255\nsg29\n(lp1256\nI0\naI0\nasg31\nI12\nsba(i__main__\nDistrict\np1257\n(dp1258\ng7\n(lp1259\nsg6\nS\'Southern New Jersey\'\np1260\nsg16\n(lp1261\nF0.0\naF0.0\nasg25\n(lp1262\nI0\naI0\nasg27\nS\'New Jersey\'\np1263\nsg29\n(lp1264\nI0\naI0\nasg31\nI9\nsbasbsS\'Washington\'\np1265\n(i__main__\nState\np1266\n(dp1267\ng4\n(lp1268\nI0\naI0\nasg6\ng1265\nsg7\n(lp1269\nsg9\n(lp1270\ng114\nag114\nag114\nag114\naS\'7\\n\'\np1271\nasg16\n(lp1272\nF0.0\naF0.0\nasg18\n(lp1273\n(i__main__\nDistrict\np1274\n(dp1275\ng7\n(lp1276\nsg6\nS\'Seattle\'\np1277\nsg16\n(lp1278\nF0.0\naF0.0\nasg25\n(lp1279\nI0\naI0\nasg27\nS\'Washington\'\np1280\nsg29\n(lp1281\nI0\naI0\nasg31\nI15\nsba(i__main__\nDistrict\np1282\n(dp1283\ng7\n(lp1284\nsg6\nS\'Central Washington\'\np1285\nsg16\n(lp1286\nF0.0\naF0.0\nasg25\n(lp1287\nI0\naI0\nasg27\nS\'Washington\'\np1288\nsg29\n(lp1289\nI0\naI0\nasg31\nI9\nsba(i__main__\nDistrict\np1290\n(dp1291\ng7\n(lp1292\nsg6\nS\'Eastern Washington\'\np1293\nsg16\n(lp1294\nF0.0\naF0.0\nasg25\n(lp1295\nI0\naI0\nasg27\nS\'Washington\'\np1296\nsg29\n(lp1297\nI0\naI0\nasg31\nI6\nsbasbsS\'North Carolina\'\np1298\n(i__main__\nState\np1299\n(dp1300\ng4\n(lp1301\nI0\naI0\nasg6\ng1298\nsg7\n(lp1302\nsg9\n(lp1303\nS\'-7\'\np1304\naS\'-7\'\np1305\naS\'-7\'\np1306\naS\'-7\'\np1307\naS\'-7\\n\'\np1308\nasg16\n(lp1309\nF0.0\naF0.0\nasg18\n(lp1310\n(i__main__\nDistrict\np1311\n(dp1312\ng7\n(lp1313\nsg6\nS\'Western North Carolina\'\np1314\nsg16\n(lp1315\nF0.0\naF0.0\nasg25\n(lp1316\nI0\naI0\nasg27\nS\'North Carolina\'\np1317\nsg29\n(lp1318\nI0\naI0\nasg31\nI9\nsba(i__main__\nDistrict\np1319\n(dp1320\ng7\n(lp1321\nsg6\nS\'Raleigh-Durham\'\np1322\nsg16\n(lp1323\nF0.0\naF0.0\nasg25\n(lp1324\nI0\naI0\nasg27\nS\'North Carolina\'\np1325\nsg29\n(lp1326\nI0\naI0\nasg31\nI12\nsba(i__main__\nDistrict\np1327\n(dp1328\ng7\n(lp1329\nsg6\nS\'Charlotte\'\np1330\nsg16\n(lp1331\nF0.0\naF0.0\nasg25\n(lp1332\nI0\naI0\nasg27\nS\'North Carolina\'\np1333\nsg29\n(lp1334\nI0\naI0\nasg31\nI9\nsba(i__main__\nDistrict\np1335\n(dp1336\ng7\n(lp1337\nsg6\nS\'The Coast\'\np1338\nsg16\n(lp1339\nF0.0\naF0.0\nasg25\n(lp1340\nI0\naI0\nasg27\nS\'North Carolina\'\np1341\nsg29\n(lp1342\nI0\naI0\nasg31\nI9\nsbasbsS\'New York\'\np1343\n(i__main__\nState\np1344\n(dp1345\ng4\n(lp1346\nI0\naI0\nasg6\ng1343\nsg7\n(lp1347\nsg9\n(lp1348\nS\'-8\'\np1349\naS\'-8\'\np1350\naS\'-8\'\np1351\naS\'-8\'\np1352\naS\'-8\\n\'\np1353\nasg16\n(lp1354\nF0.0\naF0.0\nasg18\n(lp1355\n(i__main__\nDistrict\np1356\n(dp1357\ng7\n(lp1358\nsg6\nS\'New York\'\np1359\nsg16\n(lp1360\nF0.0\naF0.0\nasg25\n(lp1361\nI0\naI0\nasg27\nS\'New York\'\np1362\nsg29\n(lp1363\nI0\naI0\nasg31\nI33\nsba(i__main__\nDistrict\np1364\n(dp1365\ng7\n(lp1366\nsg6\nS\'Long Island\'\np1367\nsg16\n(lp1368\nF0.0\naF0.0\nasg25\n(lp1369\nI0\naI0\nasg27\nS\'New York\'\np1370\nsg29\n(lp1371\nI0\naI0\nasg31\nI12\nsba(i__main__\nDistrict\np1372\n(dp1373\ng7\n(lp1374\nsg6\nS\'Hudson Valley\'\np1375\nsg16\n(lp1376\nF0.0\naF0.0\nasg25\n(lp1377\nI0\naI0\nasg27\nS\'New York\'\np1378\nsg29\n(lp1379\nI0\naI0\nasg31\nI15\nsba(i__main__\nDistrict\np1380\n(dp1381\ng7\n(lp1382\nsg6\nS\'Upstate\'\np1383\nsg16\n(lp1384\nF0.0\naF0.0\nasg25\n(lp1385\nI0\naI0\nasg27\nS\'New York\'\np1386\nsg29\n(lp1387\nI0\naI0\nasg31\nI12\nsba(i__main__\nDistrict\np1388\n(dp1389\ng7\n(lp1390\nsg6\nS\'Buffalo and Rochester\'\np1391\nsg16\n(lp1392\nF0.0\naF0.0\nasg25\n(lp1393\nI0\naI0\nasg27\nS\'New York\'\np1394\nsg29\n(lp1395\nI0\naI0\nasg31\nI9\nsbasbsS\'Texas\'\np1396\n(i__main__\nState\np1397\n(dp1398\ng4\n(lp1399\nI0\naI0\nasg6\ng1396\nsg7\n(lp1400\nsg9\n(lp1401\ng360\nag360\nag360\nag360\naS\'3\\n\'\np1402\nasg16\n(lp1403\nF0.0\naF0.0\nasg18\n(lp1404\n(i__main__\nDistrict\np1405\n(dp1406\ng7\n(lp1407\nsg6\nS\'West Texas\'\np1408\nsg16\n(lp1409\nF0.0\naF0.0\nasg25\n(lp1410\nI0\naI0\nasg27\nS\'Texas\'\np1411\nsg29\n(lp1412\nI0\naI0\nasg31\nI15\nsba(i__main__\nDistrict\np1413\n(dp1414\ng7\n(lp1415\nsg6\nS\'South Texas\'\np1416\nsg16\n(lp1417\nF0.0\naF0.0\nasg25\n(lp1418\nI0\naI0\nasg27\nS\'Texas\'\np1419\nsg29\n(lp1420\nI0\naI0\nasg31\nI12\nsba(i__main__\nDistrict\np1421\n(dp1422\ng7\n(lp1423\nsg6\nS\'East Texas\'\np1424\nsg16\n(lp1425\nF0.0\naF0.0\nasg25\n(lp1426\nI0\naI0\nasg27\nS\'Texas\'\np1427\nsg29\n(lp1428\nI0\naI0\nasg31\nI18\nsba(i__main__\nDistrict\np1429\n(dp1430\ng7\n(lp1431\nsg6\nS\'Houston\'\np1432\nsg16\n(lp1433\nF0.0\naF0.0\nasg25\n(lp1434\nI0\naI0\nasg27\nS\'Texas\'\np1435\nsg29\n(lp1436\nI0\naI0\nasg31\nI24\nsba(i__main__\nDistrict\np1437\n(dp1438\ng7\n(lp1439\nsg6\nS\'Dallas-Fort Worth\'\np1440\nsg16\n(lp1441\nF0.0\naF0.0\nasg25\n(lp1442\nI0\naI0\nasg27\nS\'Texas\'\np1443\nsg29\n(lp1444\nI0\naI0\nasg31\nI24\nsba(i__main__\nDistrict\np1445\n(dp1446\ng7\n(lp1447\nsg6\nS\'San Antonio and Austin\'\np1448\nsg16\n(lp1449\nF0.0\naF0.0\nasg25\n(lp1450\nI0\naI0\nasg27\nS\'Texas\'\np1451\nsg29\n(lp1452\nI0\naI0\nasg31\nI15\nsbasbsS\'Nevada\'\np1453\n(i__main__\nState\np1454\n(dp1455\ng4\n(lp1456\nI0\naI0\nasg6\ng1453\nsg7\n(lp1457\nsg9\n(lp1458\nS\'-8\'\np1459\naS\'-8\'\np1460\naS\'-8\'\np1461\naS\'-8\'\np1462\naS\'-8\\n\'\np1463\nasg16\n(lp1464\nF0.0\naF0.0\nasg18\n(lp1465\n(i__main__\nDistrict\np1466\n(dp1467\ng7\n(lp1468\nsg6\nS\'1st\'\np1469\nsg16\n(lp1470\nF0.0\naF0.0\nasg25\n(lp1471\nI0\naI0\nasg27\nS\'Nevada\'\np1472\nsg29\n(lp1473\nI0\naI0\nasg31\nI12\nsbasbsS\'Maine\'\np1474\n(i__main__\nState\np1475\n(dp1476\ng4\n(lp1477\nI0\naI0\nasg6\ng1474\nsg7\n(lp1478\nsg9\n(lp1479\ng1137\nag1137\nag1137\nag1137\naS\'1\\n\'\np1480\nasg16\n(lp1481\nF0.0\naF0.0\nasg18\n(lp1482\n(i__main__\nDistrict\np1483\n(dp1484\ng7\n(lp1485\nsg6\nS\'1st\'\np1486\nsg16\n(lp1487\nF0.0\naF0.0\nasg25\n(lp1488\nI0\naI0\nasg27\nS\'Maine\'\np1489\nsg29\n(lp1490\nI0\naI0\nasg31\nI6\nsbasbs.'
p2
aS"(dp0\nS'Vermont'\np1\nI2\nsS'Georgia'\np2\nI1\nsS'Colorado'\np3\nI1\nsS'Oklahoma'\np4\nI2\nsS'Minnesota'\np5\nI2\nsS'Virginia'\np6\nI1\nsS'Tennessee'\np7\nI1\nsS'Arkansas'\np8\nI2\nsS'Massachusetts'\np9\nI1\nsS'South Carolina'\np10\nI1\nsS'Alabama'\np11\nI1\nsS'Nevada'\np12\nI2\nsS'Texas'\np13\nI1\nsS'North Dakota'\np14\nI1\ns."
p3
aS'I1\n.'
p4
aS'I10\n.'
p5
a.