(dp0
S'Mississippi'
p1
(i__main__
State
p2
(dp3
S'organizations'
p4
(lp5
I5
aI3
asS'name'
p6
g1
sS'opinions'
p7
(lp8
sS'positions'
p9
(lp10
S'-4'
p11
aS'-4'
p12
aS'-4'
p13
aS'-4'
p14
aS'-4\n'
p15
asS'support'
p16
(lp17
F492.0
aF924.0
asS'districts'
p18
(lp19
(i__main__
District
p20
(dp21
g7
(lp22
sg6
S'1st'
p23
sg16
(lp24
F41.0
aF77.0
asS'adsThisTurn'
p25
(lp26
I0
aI0
asS'state'
p27
S'Mississippi'
p28
sS'campaigningThisTurn'
p29
(lp30
I0
aI0
asS'population'
p31
I12
sbasbsS'Oklahoma'
p32
(i__main__
State
p33
(dp34
g4
(lp35
I5
aI3
asg6
g32
sg7
(lp36
sg9
(lp37
S'-4'
p38
aS'-4'
p39
aS'-4'
p40
aS'-4'
p41
aS'-4\n'
p42
asg16
(lp43
F1770.0
aF570.0
asg18
(lp44
(i__main__
District
p45
(dp46
g7
(lp47
sg6
S'1st'
p48
sg16
(lp49
F118.0
aF38.0
asg25
(lp50
I178000
aI0
asg27
S'Oklahoma'
p51
sg29
(lp52
I0
aI0
asg31
I15
sbasbsS'Wyoming'
p53
(i__main__
State
p54
(dp55
g4
(lp56
I4
aI2
asg6
g53
sg7
(lp57
sg9
(lp58
S'10'
p59
aS'10'
p60
aS'10'
p61
aS'10'
p62
aS'10\n'
p63
asg16
(lp64
F192.0
aF72.0
asg18
(lp65
(i__main__
District
p66
(dp67
g7
(lp68
sg6
S'1st'
p69
sg16
(lp70
F64.0
aF24.0
asg25
(lp71
I0
aI0
asg27
S'Wyoming'
p72
sg29
(lp73
I0
aI0
asg31
I3
sbasbsS'Minnesota'
p74
(i__main__
State
p75
(dp76
g4
(lp77
I3
aI3
asg6
g74
sg7
(lp78
sg9
(lp79
S'-3'
p80
aS'-3'
p81
aS'-3'
p82
aS'-3'
p83
aS'-3\n'
p84
asg16
(lp85
F2532.0
aF1044.0
asg18
(lp86
(i__main__
District
p87
(dp88
g7
(lp89
sg6
S'Twin Cities'
p90
sg16
(lp91
F143.0
aF48.0
asg25
(lp92
I111000
aI0
asg27
S'Minnesota'
p93
sg29
(lp94
I0
aI0
asg31
I12
sba(i__main__
District
p95
(dp96
g7
(lp97
sg6
S'Southern Minnesota'
p98
sg16
(lp99
F73.0
aF39.0
asg25
(lp100
I111000
aI0
asg27
S'Minnesota'
p101
sg29
(lp102
I0
aI0
asg31
I6
sba(i__main__
District
p103
(dp104
g7
(lp105
sg6
S'Northern Minnesota'
p106
sg16
(lp107
F63.0
aF39.0
asg25
(lp108
I334000
aI0
asg27
S'Minnesota'
p109
sg29
(lp110
I0
aI0
asg31
I6
sbasbsS'Illinois'
p111
(i__main__
State
p112
(dp113
g4
(lp114
I6
aI3
asg6
g111
sg7
(lp115
sg9
(lp116
S'7'
p117
ag117
ag117
ag117
aS'7\n'
p118
asg16
(lp119
F2256.0
aF1386.0
asg18
(lp120
(i__main__
District
p121
(dp122
g7
(lp123
sg6
S'Chicago'
p124
sg16
(lp125
F44.0
aF28.0
asg25
(lp126
I0
aI0
asg27
S'Illinois'
p127
sg29
(lp128
I0
aI0
asg31
I12
sba(i__main__
District
p129
(dp130
g7
(lp131
sg6
S'Chicago Suburbs'
p132
sg16
(lp133
F48.0
aF25.0
asg25
(lp134
I0
aI0
asg27
S'Illinois'
p135
sg29
(lp136
I0
aI0
asg31
I24
sba(i__main__
District
p137
(dp138
g7
(lp139
sg6
S'Southern Illinois'
p140
sg16
(lp141
F32.0
aF25.0
asg25
(lp142
I0
aI0
asg27
S'Illinois'
p143
sg29
(lp144
I0
aI0
asg31
I9
sba(i__main__
District
p145
(dp146
g7
(lp147
sg6
S'Northern Illinois'
p148
sg16
(lp149
F32.0
aF25.0
asg25
(lp150
I0
aI0
asg27
S'Illinois'
p151
sg29
(lp152
I0
aI0
asg31
I9
sbasbsS'Arkansas'
p153
(i__main__
State
p154
(dp155
g4
(lp156
I3
aI2
asg6
g153
sg7
(lp157
sg9
(lp158
S'4'
p159
ag159
ag159
ag159
aS'4\n'
p160
asg16
(lp161
F1344.0
aF936.0
asg18
(lp162
(i__main__
District
p163
(dp164
g7
(lp165
sg6
S'1st'
p166
sg16
(lp167
F112.0
aF78.0
asg25
(lp168
I427000
aI0
asg27
S'Arkansas'
p169
sg29
(lp170
I0
aI0
asg31
I12
sbasbsS'New Mexico'
p171
(i__main__
State
p172
(dp173
g4
(lp174
I4
aI0
asg6
g171
sg7
(lp175
sg9
(lp176
S'-9'
p177
aS'-9'
p178
aS'-9'
p179
aS'-9'
p180
aS'-9\n'
p181
asg16
(lp182
F369.0
aF0.0
asg18
(lp183
(i__main__
District
p184
(dp185
g7
(lp186
sg6
S'1st'
p187
sg16
(lp188
F41.0
aF0.0
asg25
(lp189
I0
aI0
asg27
S'New Mexico'
p190
sg29
(lp191
I0
aI0
asg31
I9
sbasbsS'Indiana'
p192
(i__main__
State
p193
(dp194
g4
(lp195
I5
aI3
asg6
g192
sg7
(lp196
sg9
(lp197
S'6'
p198
ag198
ag198
ag198
aS'6\n'
p199
asg16
(lp200
F1368.0
aF648.0
asg18
(lp201
(i__main__
District
p202
(dp203
g7
(lp204
sg6
S'Northern Indiana'
p205
sg16
(lp206
F54.0
aF22.0
asg25
(lp207
I0
aI0
asg27
S'Indiana'
p208
sg29
(lp209
I0
aI0
asg31
I9
sba(i__main__
District
p210
(dp211
g7
(lp212
sg6
S'Central Indiana'
p213
sg16
(lp214
F51.0
aF25.0
asg25
(lp215
I0
aI0
asg27
S'Indiana'
p216
sg29
(lp217
I0
aI0
asg31
I9
sba(i__main__
District
p218
(dp219
g7
(lp220
sg6
S'Southern Indiana'
p221
sg16
(lp222
F47.0
aF25.0
asg25
(lp223
I0
aI0
asg27
S'Indiana'
p224
sg29
(lp225
I0
aI0
asg31
I9
sbasbsS'Maryland'
p226
(i__main__
State
p227
(dp228
g4
(lp229
I6
aI3
asg6
g226
sg7
(lp230
sg9
(lp231
S'0'
p232
ag232
ag232
ag232
aS'0\n'
p233
asg16
(lp234
F504.0
aF519.0
asg18
(lp235
(i__main__
District
p236
(dp237
g7
(lp238
sg6
S'Balitmore'
p239
sg16
(lp240
F23.0
aF21.0
asg25
(lp241
I0
aI0
asg27
S'Maryland'
p242
sg29
(lp243
I0
aI0
asg31
I9
sba(i__main__
District
p244
(dp245
g7
(lp246
sg6
S'DC Suburbs and Annapolis'
p247
sg16
(lp248
F12.0
aF25.0
asg25
(lp249
I0
aI0
asg27
S'Maryland'
p250
sg29
(lp251
I0
aI0
asg31
I6
sba(i__main__
District
p252
(dp253
g7
(lp254
sg6
S'Northern Maryland'
p255
sg16
(lp256
F25.0
aF20.0
asg25
(lp257
I0
aI0
asg27
S'Maryland'
p258
sg29
(lp259
I0
aI0
asg31
I9
sbasbsS'Louisiana'
p260
(i__main__
State
p261
(dp262
g4
(lp263
I6
aI2
asg6
g260
sg7
(lp264
sg9
(lp265
S'2'
p266
ag266
ag266
ag266
aS'2\n'
p267
asg16
(lp268
F378.0
aF432.0
asg18
(lp269
(i__main__
District
p270
(dp271
g7
(lp272
sg6
S'North and Western Louisiana'
p273
sg16
(lp274
F20.0
aF23.0
asg25
(lp275
I0
aI0
asg27
S'Louisiana'
p276
sg29
(lp277
I0
aI0
asg31
I9
sba(i__main__
District
p278
(dp279
g7
(lp280
sg6
S'New Orleans'
p281
sg16
(lp282
F22.0
aF25.0
asg25
(lp283
I0
aI0
asg27
S'Louisiana'
p284
sg29
(lp285
I0
aI0
asg31
I9
sbasbsS'Idaho'
p286
(i__main__
State
p287
(dp288
g4
(lp289
I5
aI0
asg6
g286
sg7
(lp290
sg9
(lp291
S'8'
p292
ag292
ag292
ag292
aS'8\n'
p293
asg16
(lp294
F228.0
aF0.0
asg18
(lp295
(i__main__
District
p296
(dp297
g7
(lp298
sg6
S'1st'
p299
sg16
(lp300
F38.0
aF0.0
asg25
(lp301
I0
aI0
asg27
S'Idaho'
p302
sg29
(lp303
I0
aI0
asg31
I6
sbasbsS'Tennessee'
p304
(i__main__
State
p305
(dp306
g4
(lp307
I8
aI3
asg6
g304
sg7
(lp308
sg9
(lp309
g266
ag266
ag266
ag266
aS'2\n'
p310
asg16
(lp311
F1716.0
aF849.0
asg18
(lp312
(i__main__
District
p313
(dp314
g7
(lp315
sg6
S'Central Tennessee'
p316
sg16
(lp317
F75.0
aF32.0
asg25
(lp318
I351000
aI0
asg27
S'Tennessee'
p319
sg29
(lp320
I0
aI0
asg31
I12
sba(i__main__
District
p321
(dp322
g7
(lp323
sg6
S'Eastern Tennessee'
p324
sg16
(lp325
F56.0
aF31.0
asg25
(lp326
I316000
aI0
asg27
S'Tennessee'
p327
sg29
(lp328
I0
aI0
asg31
I9
sba(i__main__
District
p329
(dp330
g7
(lp331
sg6
S'Memphis and Western Tennessee'
p332
sg16
(lp333
F52.0
aF31.0
asg25
(lp334
I316000
aI0
asg27
S'Tennessee'
p335
sg29
(lp336
I0
aI0
asg31
I6
sbasbsS'Arizona'
p337
(i__main__
State
p338
(dp339
g4
(lp340
I10
aI2
asg6
g337
sg7
(lp341
sg9
(lp342
S'3'
p343
ag343
ag343
ag343
aS'3\n'
p344
asg16
(lp345
F1509.0
aF675.0
asg18
(lp346
(i__main__
District
p347
(dp348
g7
(lp349
sg6
S'Phoenix'
p350
sg16
(lp351
F61.0
aF25.0
asg25
(lp352
I0
aI0
asg27
S'Arizona'
p353
sg29
(lp354
I0
aI0
asg31
I15
sba(i__main__
District
p355
(dp356
g7
(lp357
sg6
S'Southern Arizona'
p358
sg16
(lp359
F50.0
aF25.0
asg25
(lp360
I0
aI0
asg27
S'Arizona'
p361
sg29
(lp362
I0
aI0
asg31
I6
sba(i__main__
District
p363
(dp364
g7
(lp365
sg6
S'Northern Arizona'
p366
sg16
(lp367
F49.0
aF25.0
asg25
(lp368
I0
aI0
asg27
S'Arizona'
p369
sg29
(lp370
I0
aI0
asg31
I6
sbasbsS'Iowa'
p371
(i__main__
State
p372
(dp373
g4
(lp374
I2
aI3
asg6
g371
sg7
(lp375
sg9
(lp376
S'5'
p377
ag377
ag377
ag377
aS'5\n'
p378
asg16
(lp379
F924.0
aF1284.0
asg18
(lp380
(i__main__
District
p381
(dp382
g7
(lp383
sg6
S'1st'
p384
sg16
(lp385
F77.0
aF107.0
asg25
(lp386
I0
aI0
asg27
S'Iowa'
p387
sg29
(lp388
I0
aI0
asg31
I12
sbasbsS'Michigan'
p389
(i__main__
State
p390
(dp391
g4
(lp392
I7
aI4
asg6
g389
sg7
(lp393
sg9
(lp394
S'-2'
p395
aS'-2'
p396
aS'-2'
p397
aS'-2'
p398
aS'-2\n'
p399
asg16
(lp400
F1572.0
aF2607.0
asg18
(lp401
(i__main__
District
p402
(dp403
g7
(lp404
sg6
S'Detroit'
p405
sg16
(lp406
F76.0
aF72.0
asg25
(lp407
I0
aI0
asg27
S'Michigan'
p408
sg29
(lp409
I0
aI0
asg31
I15
sba(i__main__
District
p410
(dp411
g7
(lp412
sg6
S'Southwest Michigan'
p413
sg16
(lp414
F16.0
aF61.0
asg25
(lp415
I0
aI0
asg27
S'Michigan'
p416
sg29
(lp417
I0
aI0
asg31
I12
sba(i__main__
District
p418
(dp419
g7
(lp420
sg6
S"Michigan's Rust Belt"
p421
sg16
(lp422
F16.0
aF59.0
asg25
(lp423
I0
aI0
asg27
S'Michigan'
p424
sg29
(lp425
I0
aI0
asg31
I12
sba(i__main__
District
p426
(dp427
g7
(lp428
sg6
S'Northern Michigan'
p429
sg16
(lp430
F16.0
aF29.0
asg25
(lp431
I0
aI0
asg27
S'Michigan'
p432
sg29
(lp433
I0
aI0
asg31
I3
sbasbsS'Kansas'
p434
(i__main__
State
p435
(dp436
g4
(lp437
I3
aI2
asg6
g434
sg7
(lp438
sg9
(lp439
g159
ag159
ag159
ag159
aS'4\n'
p440
asg16
(lp441
F468.0
aF312.0
asg18
(lp442
(i__main__
District
p443
(dp444
g7
(lp445
sg6
S'1st'
p446
sg16
(lp447
F39.0
aF26.0
asg25
(lp448
I0
aI0
asg27
S'Kansas'
p449
sg29
(lp450
I0
aI0
asg31
I12
sbasbsS'Utah'
p451
(i__main__
State
p452
(dp453
g4
(lp454
I4
aI2
asg6
g451
sg7
(lp455
sg9
(lp456
g159
ag159
ag159
ag159
aS'4\n'
p457
asg16
(lp458
F840.0
aF300.0
asg18
(lp459
(i__main__
District
p460
(dp461
g7
(lp462
sg6
S'1st'
p463
sg16
(lp464
F70.0
aF25.0
asg25
(lp465
I0
aI0
asg27
S'Utah'
p466
sg29
(lp467
I0
aI0
asg31
I12
sbasbsS'Virginia'
p468
(i__main__
State
p469
(dp470
g4
(lp471
I8
aI4
asg6
g468
sg7
(lp472
sg9
(lp473
g198
ag198
ag198
ag198
aS'6\n'
p474
asg16
(lp475
F4239.0
aF2532.0
asg18
(lp476
(i__main__
District
p477
(dp478
g7
(lp479
sg6
S'DC Suburbs'
p480
sg16
(lp481
F116.0
aF84.0
asg25
(lp482
I328000
aI0
asg27
S'Virginia'
p483
sg29
(lp484
I0
aI0
asg31
I9
sba(i__main__
District
p485
(dp486
g7
(lp487
sg6
S'Virginia Coast'
p488
sg16
(lp489
F153.0
aF80.0
asg25
(lp490
I427000
aI0
asg27
S'Virginia'
p491
sg29
(lp492
I0
aI0
asg31
I15
sba(i__main__
District
p493
(dp494
g7
(lp495
sg6
S'Western Virginia'
p496
sg16
(lp497
F100.0
aF64.0
asg25
(lp498
I361000
aI0
asg27
S'Virginia'
p499
sg29
(lp500
I0
aI0
asg31
I9
sbasbsS'Oregon'
p501
(i__main__
State
p502
(dp503
g4
(lp504
I4
aI2
asg6
g501
sg7
(lp505
sg9
(lp506
S'-3'
p507
aS'-3'
p508
aS'-3'
p509
aS'-3'
p510
aS'-3\n'
p511
asg16
(lp512
F819.0
aF318.0
asg18
(lp513
(i__main__
District
p514
(dp515
g7
(lp516
sg6
S'Portland and Salem'
p517
sg16
(lp518
F57.0
aF20.0
asg25
(lp519
I0
aI0
asg27
S'Oregon'
p520
sg29
(lp521
I0
aI0
asg31
I9
sba(i__main__
District
p522
(dp523
g7
(lp524
sg6
S'Southern and Easthern Oregon'
p525
sg16
(lp526
F51.0
aF23.0
asg25
(lp527
I0
aI0
asg27
S'Oregon'
p528
sg29
(lp529
I0
aI0
asg31
I6
sbasbsS'Connecticut'
p530
(i__main__
State
p531
(dp532
g4
(lp533
I4
aI0
asg6
g530
sg7
(lp534
sg9
(lp535
g117
ag117
ag117
ag117
aS'7\n'
p536
asg16
(lp537
F282.0
aF0.0
asg18
(lp538
(i__main__
District
p539
(dp540
g7
(lp541
sg6
S'New York Suburbs'
p542
sg16
(lp543
F8.0
aF0.0
asg25
(lp544
I0
aI0
asg27
S'Connecticut'
p545
sg29
(lp546
I0
aI0
asg31
I6
sba(i__main__
District
p547
(dp548
g7
(lp549
sg6
S'North-East Connecticut'
p550
sg16
(lp551
F26.0
aF0.0
asg25
(lp552
I0
aI0
asg27
S'Connecticut'
p553
sg29
(lp554
I0
aI0
asg31
I9
sbasbsS'Montana'
p555
(i__main__
State
p556
(dp557
g4
(lp558
I1
aI0
asg6
g555
sg7
(lp559
sg9
(lp560
S'-6'
p561
aS'-6'
p562
aS'-6'
p563
aS'-6'
p564
aS'-6\n'
p565
asg16
(lp566
F6.0
aF0.0
asg18
(lp567
(i__main__
District
p568
(dp569
g7
(lp570
sg6
S'1st'
p571
sg16
(lp572
F2.0
aF0.0
asg25
(lp573
I0
aI0
asg27
S'Montana'
p574
sg29
(lp575
I0
aI0
asg31
I3
sbasbsS'California'
p576
(i__main__
State
p577
(dp578
g4
(lp579
I18
aI5
asg6
g576
sg7
(lp580
sg9
(lp581
g377
ag377
ag377
ag377
aS'5\n'
p582
asg16
(lp583
F21570.0
aF5427.0
asg18
(lp584
(i__main__
District
p585
(dp586
g7
(lp587
sg6
S'San Diego'
p588
sg16
(lp589
F124.0
aF33.0
asg25
(lp590
I0
aI0
asg27
S'California'
p591
sg29
(lp592
I0
aI0
asg31
I15
sba(i__main__
District
p593
(dp594
g7
(lp595
sg6
S'Orange County and the Inland Empire'
p596
sg16
(lp597
F122.0
aF33.0
asg25
(lp598
I0
aI0
asg27
S'California'
p599
sg29
(lp600
I0
aI0
asg31
I21
sba(i__main__
District
p601
(dp602
g7
(lp603
sg6
S'Los Angeles'
p604
sg16
(lp605
F162.0
aF37.0
asg25
(lp606
I0
aI0
asg27
S'California'
p607
sg29
(lp608
I0
aI0
asg31
I45
sba(i__main__
District
p609
(dp610
g7
(lp611
sg6
S'Central Coast'
p612
sg16
(lp613
F135.0
aF33.0
asg25
(lp614
I0
aI0
asg27
S'California'
p615
sg29
(lp616
I0
aI0
asg31
I12
sba(i__main__
District
p617
(dp618
g7
(lp619
sg6
S'Bay Area'
p620
sg16
(lp621
F121.0
aF33.0
asg25
(lp622
I0
aI0
asg27
S'California'
p623
sg29
(lp624
I0
aI0
asg31
I24
sba(i__main__
District
p625
(dp626
g7
(lp627
sg6
S'Central Valley'
p628
sg16
(lp629
F127.0
aF33.0
asg25
(lp630
I0
aI0
asg27
S'California'
p631
sg29
(lp632
I0
aI0
asg31
I24
sba(i__main__
District
p633
(dp634
g7
(lp635
sg6
S'Northern California and the Sierras'
p636
sg16
(lp637
F127.0
aF33.0
asg25
(lp638
I0
aI0
asg27
S'California'
p639
sg29
(lp640
I0
aI0
asg31
I18
sbasbsS'Massachusetts'
p641
(i__main__
State
p642
(dp643
g4
(lp644
I6
aI4
asg6
g641
sg7
(lp645
sg9
(lp646
S'-1'
p647
aS'-1'
p648
aS'-1'
p649
aS'-1'
p650
aS'-1\n'
p651
asg16
(lp652
F2175.0
aF3432.0
asg18
(lp653
(i__main__
District
p654
(dp655
g7
(lp656
sg6
S'Boston'
p657
sg16
(lp658
F104.0
aF130.0
asg25
(lp659
I1284000
aI0
asg27
S'Massachusetts'
p660
sg29
(lp661
I10
aI0
asg31
I12
sba(i__main__
District
p662
(dp663
g7
(lp664
sg6
S'Southeast Massachusetts'
p665
sg16
(lp666
F47.0
aF108.0
asg25
(lp667
I652000
aI0
asg27
S'Massachusetts'
p668
sg29
(lp669
I5
aI0
asg31
I9
sba(i__main__
District
p670
(dp671
g7
(lp672
sg6
S'Western Massachusetts'
p673
sg16
(lp674
F56.0
aF100.0
asg25
(lp675
I687000
aI0
asg27
S'Massachusetts'
p676
sg29
(lp677
I6
aI0
asg31
I9
sbasbsS'West Virginia'
p678
(i__main__
State
p679
(dp680
g4
(lp681
I4
aI0
asg6
g678
sg7
(lp682
sg9
(lp683
g292
ag292
ag292
ag292
aS'8\n'
p684
asg16
(lp685
F315.0
aF0.0
asg18
(lp686
(i__main__
District
p687
(dp688
g7
(lp689
sg6
S'1st'
p690
sg16
(lp691
F35.0
aF0.0
asg25
(lp692
I0
aI0
asg27
S'West Virginia'
p693
sg29
(lp694
I0
aI0
asg31
I9
sbasbsS'South Carolina'
p695
(i__main__
State
p696
(dp697
g4
(lp698
I6
aI3
asg6
g695
sg7
(lp699
sg9
(lp700
g232
ag232
ag232
ag232
aS'0\n'
p701
asg16
(lp702
F3741.0
aF4467.0
asg18
(lp703
(i__main__
District
p704
(dp705
g7
(lp706
sg6
S'Inland South Carolina'
p707
sg16
(lp708
F182.0
aF223.0
asg25
(lp709
I0
aI0
asg27
S'South Carolina'
p710
sg29
(lp711
I0
aI0
asg31
I12
sba(i__main__
District
p712
(dp713
g7
(lp714
sg6
S'Coastal South Carolina'
p715
sg16
(lp716
F173.0
aF199.0
asg25
(lp717
I0
aI0
asg27
S'South Carolina'
p718
sg29
(lp719
I0
aI0
asg31
I9
sbasbsS'New Hampshire'
p720
(i__main__
State
p721
(dp722
g4
(lp723
I1
aI3
asg6
g720
sg7
(lp724
sg9
(lp725
S'-9'
p726
aS'-9'
p727
aS'-9'
p728
aS'-9'
p729
aS'-9\n'
p730
asg16
(lp731
F234.0
aF762.0
asg18
(lp732
(i__main__
District
p733
(dp734
g7
(lp735
sg6
S'1st'
p736
sg16
(lp737
F39.0
aF127.0
asg25
(lp738
I0
aI0
asg27
S'New Hampshire'
p739
sg29
(lp740
I0
aI0
asg31
I6
sbasbsS'Wisconsin'
p741
(i__main__
State
p742
(dp743
g4
(lp744
I7
aI2
asg6
g741
sg7
(lp745
sg9
(lp746
S'9'
p747
ag747
ag747
ag747
aS'9\n'
p748
asg16
(lp749
F1104.0
aF516.0
asg18
(lp750
(i__main__
District
p751
(dp752
g7
(lp753
sg6
S'Milwaukee'
p754
sg16
(lp755
F46.0
aF23.0
asg25
(lp756
I0
aI0
asg27
S'Wisconsin'
p757
sg29
(lp758
I0
aI0
asg31
I9
sba(i__main__
District
p759
(dp760
g7
(lp761
sg6
S'Northern Wisconsin'
p762
sg16
(lp763
F46.0
aF17.0
asg25
(lp764
I0
aI0
asg27
S'Wisconsin'
p765
sg29
(lp766
I0
aI0
asg31
I6
sba(i__main__
District
p767
(dp768
g7
(lp769
sg6
S'Central Wisconsin'
p770
sg16
(lp771
F46.0
aF23.0
asg25
(lp772
I0
aI0
asg27
S'Wisconsin'
p773
sg29
(lp774
I0
aI0
asg31
I9
sbasbsS'Vermont'
p775
(i__main__
State
p776
(dp777
g4
(lp778
I5
aI2
asg6
g775
sg7
(lp779
sg9
(lp780
g377
ag377
ag377
ag377
aS'5\n'
p781
asg16
(lp782
F210.0
aF84.0
asg18
(lp783
(i__main__
District
p784
(dp785
g7
(lp786
sg6
S'1st'
p787
sg16
(lp788
F70.0
aF28.0
asg25
(lp789
I130000
aI0
asg27
S'Vermont'
p790
sg29
(lp791
I0
aI0
asg31
I3
sbasbsS'Georgia'
p792
(i__main__
State
p793
(dp794
g4
(lp795
I10
aI5
asg6
g792
sg7
(lp796
sg9
(lp797
S'10'
p798
aS'10'
p799
aS'10'
p800
aS'10'
p801
aS'10\n'
p802
asg16
(lp803
F4974.0
aF6768.0
asg18
(lp804
(i__main__
District
p805
(dp806
g7
(lp807
sg6
S'Atlanta'
p808
sg16
(lp809
F155.0
aF188.0
asg25
(lp810
I1854000
aI0
asg27
S'Georgia'
p811
sg29
(lp812
I0
aI0
asg31
I18
sba(i__main__
District
p813
(dp814
g7
(lp815
sg6
S'Northern Georgia'
p816
sg16
(lp817
F93.0
aF143.0
asg25
(lp818
I742000
aI0
asg27
S'Georgia'
p819
sg29
(lp820
I0
aI0
asg31
I12
sba(i__main__
District
p821
(dp822
g7
(lp823
sg6
S'Southern Georgia'
p824
sg16
(lp825
F89.0
aF139.0
asg25
(lp826
I621000
aI0
asg27
S'Georgia'
p827
sg29
(lp828
I0
aI0
asg31
I12
sbasbsS'North Dakota'
p829
(i__main__
State
p830
(dp831
g4
(lp832
I2
aI2
asg6
g829
sg7
(lp833
sg9
(lp834
S'-6'
p835
aS'-6'
p836
aS'-6'
p837
aS'-6'
p838
aS'-6\n'
p839
asg16
(lp840
F75.0
aF219.0
asg18
(lp841
(i__main__
District
p842
(dp843
g7
(lp844
sg6
S'1st'
p845
sg16
(lp846
F25.0
aF73.0
asg25
(lp847
I1116000
aI0
asg27
S'North Dakota'
p848
sg29
(lp849
I0
aI0
asg31
I3
sbasbsS'Pennsylvania'
p850
(i__main__
State
p851
(dp852
g4
(lp853
I13
aI3
asg6
g850
sg7
(lp854
sg9
(lp855
S'-2'
p856
aS'-2'
p857
aS'-2'
p858
aS'-2'
p859
aS'-2\n'
p860
asg16
(lp861
F1782.0
aF1254.0
asg18
(lp862
(i__main__
District
p863
(dp864
g7
(lp865
sg6
S'Central Pennsylvania'
p866
sg16
(lp867
F27.0
aF25.0
asg25
(lp868
I0
aI0
asg27
S'Pennsylvania'
p869
sg29
(lp870
I0
aI0
asg31
I12
sba(i__main__
District
p871
(dp872
g7
(lp873
sg6
S'Philadelphia'
p874
sg16
(lp875
F45.0
aF19.0
asg25
(lp876
I0
aI0
asg27
S'Pennsylvania'
p877
sg29
(lp878
I0
aI0
asg31
I18
sba(i__main__
District
p879
(dp880
g7
(lp881
sg6
S'Pittsburg'
p882
sg16
(lp883
F27.0
aF25.0
asg25
(lp884
I0
aI0
asg27
S'Pennsylvania'
p885
sg29
(lp886
I0
aI0
asg31
I12
sba(i__main__
District
p887
(dp888
g7
(lp889
sg6
S'Northeast Pennsylvania'
p890
sg16
(lp891
F27.0
aF26.0
asg25
(lp892
I0
aI0
asg27
S'Pennsylvania'
p893
sg29
(lp894
I0
aI0
asg31
I12
sbasbsS'Florida'
p895
(i__main__
State
p896
(dp897
g4
(lp898
I16
aI6
asg6
g895
sg7
(lp899
sg9
(lp900
g747
ag747
ag747
ag747
aS'9\n'
p901
asg16
(lp902
F8421.0
aF6087.0
asg18
(lp903
(i__main__
District
p904
(dp905
g7
(lp906
sg6
S'The Panhandle'
p907
sg16
(lp908
F103.0
aF47.0
asg25
(lp909
I0
aI0
asg27
S'Florida'
p910
sg29
(lp911
I0
aI0
asg31
I12
sba(i__main__
District
p912
(dp913
g7
(lp914
sg6
S'Jacksonville and Daytona Beach'
p915
sg16
(lp916
F93.0
aF47.0
asg25
(lp917
I0
aI0
asg27
S'Florida'
p918
sg29
(lp919
I0
aI0
asg31
I9
sba(i__main__
District
p920
(dp921
g7
(lp922
sg6
S'Orlando and the mid-coast'
p923
sg16
(lp924
F89.0
aF47.0
asg25
(lp925
I0
aI0
asg27
S'Florida'
p926
sg29
(lp927
I0
aI0
asg31
I12
sba(i__main__
District
p928
(dp929
g7
(lp930
sg6
S'Tampa and St. Petersburg'
p931
sg16
(lp932
F96.0
aF81.0
asg25
(lp933
I0
aI0
asg27
S'Florida'
p934
sg29
(lp935
I0
aI0
asg31
I15
sba(i__main__
District
p936
(dp937
g7
(lp938
sg6
S'Miami and West Palm Beach'
p939
sg16
(lp940
F132.0
aF113.0
asg25
(lp941
I0
aI0
asg27
S'Florida'
p942
sg29
(lp943
I0
aI0
asg31
I21
sba(i__main__
District
p944
(dp945
g7
(lp946
sg6
S'Southwest Florida'
p947
sg16
(lp948
F89.0
aF79.0
asg25
(lp949
I0
aI0
asg27
S'Florida'
p950
sg29
(lp951
I0
aI0
asg31
I12
sbasbsS'Alaska'
p952
(i__main__
State
p953
(dp954
g4
(lp955
I3
aI2
asg6
g952
sg7
(lp956
sg9
(lp957
g266
ag266
ag266
ag266
aS'2\n'
p958
asg16
(lp959
F84.0
aF57.0
asg18
(lp960
(i__main__
District
p961
(dp962
g7
(lp963
sg6
S'1st'
p964
sg16
(lp965
F28.0
aF19.0
asg25
(lp966
I0
aI0
asg27
S'Alaska'
p967
sg29
(lp968
I0
aI0
asg31
I3
sbasbsS'Kentucky'
p969
(i__main__
State
p970
(dp971
g4
(lp972
I6
aI3
asg6
g969
sg7
(lp973
sg9
(lp974
g343
ag343
ag343
ag343
aS'3\n'
p975
asg16
(lp976
F891.0
aF738.0
asg18
(lp977
(i__main__
District
p978
(dp979
g7
(lp980
sg6
S'Louisville and Lexington'
p981
sg16
(lp982
F49.0
aF43.0
asg25
(lp983
I0
aI0
asg27
S'Kentucky'
p984
sg29
(lp985
I0
aI0
asg31
I9
sba(i__main__
District
p986
(dp987
g7
(lp988
sg6
S'Southern Kentucky'
p989
sg16
(lp990
F50.0
aF39.0
asg25
(lp991
I0
aI0
asg27
S'Kentucky'
p992
sg29
(lp993
I0
aI0
asg31
I9
sbasbsS'Hawaii'
p994
(i__main__
State
p995
(dp996
g4
(lp997
I3
aI1
asg6
g994
sg7
(lp998
sg9
(lp999
g747
ag747
ag747
ag747
aS'9\n'
p1000
asg16
(lp1001
F216.0
aF24.0
asg18
(lp1002
(i__main__
District
p1003
(dp1004
g7
(lp1005
sg6
S'1st'
p1006
sg16
(lp1007
F36.0
aF4.0
asg25
(lp1008
I0
aI0
asg27
S'Hawaii'
p1009
sg29
(lp1010
I0
aI0
asg31
I6
sbasbsS'Nebraska'
p1011
(i__main__
State
p1012
(dp1013
g4
(lp1014
I4
aI2
asg6
g1011
sg7
(lp1015
sg9
(lp1016
S'-7'
p1017
aS'-7'
p1018
aS'-7'
p1019
aS'-7'
p1020
aS'-7\n'
p1021
asg16
(lp1022
F558.0
aF252.0
asg18
(lp1023
(i__main__
District
p1024
(dp1025
g7
(lp1026
sg6
S'1st'
p1027
sg16
(lp1028
F62.0
aF28.0
asg25
(lp1029
I0
aI0
asg27
S'Nebraska'
p1030
sg29
(lp1031
I0
aI0
asg31
I9
sbasbsS'Missouri'
p1032
(i__main__
State
p1033
(dp1034
g4
(lp1035
I8
aI2
asg6
g1032
sg7
(lp1036
sg9
(lp1037
S'-5'
p1038
aS'-5'
p1039
aS'-5'
p1040
aS'-5'
p1041
aS'-5\n'
p1042
asg16
(lp1043
F831.0
aF294.0
asg18
(lp1044
(i__main__
District
p1045
(dp1046
g7
(lp1047
sg6
S'Kansas City and Northern Missouri'
p1048
sg16
(lp1049
F38.0
aF10.0
asg25
(lp1050
I0
aI0
asg27
S'Missouri'
p1051
sg29
(lp1052
I0
aI0
asg31
I6
sba(i__main__
District
p1053
(dp1054
g7
(lp1055
sg6
S'Southern Missouri'
p1056
sg16
(lp1057
F15.0
aF10.0
asg25
(lp1058
I0
aI0
asg27
S'Missouri'
p1059
sg29
(lp1060
I0
aI0
asg31
I9
sba(i__main__
District
p1061
(dp1062
g7
(lp1063
sg6
S'St. Louis'
p1064
sg16
(lp1065
F52.0
aF16.0
asg25
(lp1066
I0
aI0
asg27
S'Missouri'
p1067
sg29
(lp1068
I0
aI0
asg31
I9
sbasbsS'Ohio'
p1069
(i__main__
State
p1070
(dp1071
g4
(lp1072
I4
aI0
asg6
g1069
sg7
(lp1073
sg9
(lp1074
S'-5'
p1075
aS'-5'
p1076
aS'-5'
p1077
aS'-5'
p1078
aS'-5\n'
p1079
asg16
(lp1080
F1104.0
aF0.0
asg18
(lp1081
(i__main__
District
p1082
(dp1083
g7
(lp1084
sg6
S'Toledo and the Northwest'
p1085
sg16
(lp1086
F23.0
aF0.0
asg25
(lp1087
I0
aI0
asg27
S'Ohio'
p1088
sg29
(lp1089
I0
aI0
asg31
I9
sba(i__main__
District
p1090
(dp1091
g7
(lp1092
sg6
S'Cleveland and the Northeast'
p1093
sg16
(lp1094
F23.0
aF0.0
asg25
(lp1095
I0
aI0
asg27
S'Ohio'
p1096
sg29
(lp1097
I0
aI0
asg31
I15
sba(i__main__
District
p1098
(dp1099
g7
(lp1100
sg6
S'Columbus and the Southeast'
p1101
sg16
(lp1102
F23.0
aF0.0
asg25
(lp1103
I0
aI0
asg27
S'Ohio'
p1104
sg29
(lp1105
I0
aI0
asg31
I12
sba(i__main__
District
p1106
(dp1107
g7
(lp1108
sg6
S'Cincinnati and Dayton'
p1109
sg16
(lp1110
F23.0
aF0.0
asg25
(lp1111
I0
aI0
asg27
S'Ohio'
p1112
sg29
(lp1113
I0
aI0
asg31
I12
sbasbsS'Alabama'
p1114
(i__main__
State
p1115
(dp1116
g4
(lp1117
I5
aI2
asg6
g1114
sg7
(lp1118
sg9
(lp1119
S'1'
p1120
ag1120
ag1120
ag1120
aS'1\n'
p1121
asg16
(lp1122
F1467.0
aF540.0
asg18
(lp1123
(i__main__
District
p1124
(dp1125
g7
(lp1126
sg6
S'Northern Alabama'
p1127
sg16
(lp1128
F55.0
aF29.0
asg25
(lp1129
I111000
aI0
asg27
S'Alabama'
p1130
sg29
(lp1131
I0
aI0
asg31
I6
sba(i__main__
District
p1132
(dp1133
g7
(lp1134
sg6
S'Central Alabama'
p1135
sg16
(lp1136
F89.0
aF22.0
asg25
(lp1137
I333000
aI0
asg27
S'Alabama'
p1138
sg29
(lp1139
I0
aI0
asg31
I9
sba(i__main__
District
p1140
(dp1141
g7
(lp1142
sg6
S'Southern Alabama'
p1143
sg16
(lp1144
F56.0
aF28.0
asg25
(lp1145
I167000
aI0
asg27
S'Alabama'
p1146
sg29
(lp1147
I0
aI0
asg31
I6
sbasbsS'Rhode Island'
p1148
(i__main__
State
p1149
(dp1150
g4
(lp1151
I6
aI0
asg6
g1148
sg7
(lp1152
sg9
(lp1153
S'-1'
p1154
aS'-1'
p1155
aS'-1'
p1156
aS'-1'
p1157
aS'-1\n'
p1158
asg16
(lp1159
F234.0
aF0.0
asg18
(lp1160
(i__main__
District
p1161
(dp1162
g7
(lp1163
sg6
S'1st'
p1164
sg16
(lp1165
F39.0
aF0.0
asg25
(lp1166
I0
aI0
asg27
S'Rhode Island'
p1167
sg29
(lp1168
I0
aI0
asg31
I6
sbasbsS'South Dakota'
p1169
(i__main__
State
p1170
(dp1171
g4
(lp1172
I3
aI0
asg6
g1169
sg7
(lp1173
sg9
(lp1174
g1120
ag1120
ag1120
ag1120
aS'1\n'
p1175
asg16
(lp1176
F81.0
aF0.0
asg18
(lp1177
(i__main__
District
p1178
(dp1179
g7
(lp1180
sg6
S'1st'
p1181
sg16
(lp1182
F27.0
aF0.0
asg25
(lp1183
I0
aI0
asg27
S'South Dakota'
p1184
sg29
(lp1185
I0
aI0
asg31
I3
sbasbsS'Colorado'
p1186
(i__main__
State
p1187
(dp1188
g4
(lp1189
I6
aI3
asg6
g1186
sg7
(lp1190
sg9
(lp1191
g198
ag198
ag198
ag198
aS'6\n'
p1192
asg16
(lp1193
F1548.0
aF2619.0
asg18
(lp1194
(i__main__
District
p1195
(dp1196
g7
(lp1197
sg6
S'Denver and the Northern Front Range'
p1198
sg16
(lp1199
F90.0
aF135.0
asg25
(lp1200
I1304000
aI0
asg27
S'Colorado'
p1201
sg29
(lp1202
I10
aI0
asg31
I12
sba(i__main__
District
p1203
(dp1204
g7
(lp1205
sg6
S'The Rest of Colorado'
p1206
sg16
(lp1207
F52.0
aF111.0
asg25
(lp1208
I1395000
aI0
asg27
S'Colorado'
p1209
sg29
(lp1210
I15
aI0
asg31
I9
sbasbsS'New Jersey'
p1211
(i__main__
State
p1212
(dp1213
g4
(lp1214
I4
aI0
asg6
g1211
sg7
(lp1215
sg9
(lp1216
S'-10'
p1217
aS'-10'
p1218
aS'-10'
p1219
aS'-10'
p1220
aS'-10\n'
p1221
asg16
(lp1222
F702.0
aF0.0
asg18
(lp1223
(i__main__
District
p1224
(dp1225
g7
(lp1226
sg6
S'Newark'
p1227
sg16
(lp1228
F30.0
aF0.0
asg25
(lp1229
I0
aI0
asg27
S'New Jersey'
p1230
sg29
(lp1231
I0
aI0
asg31
I15
sba(i__main__
District
p1232
(dp1233
g7
(lp1234
sg6
S'Cental New Jersey'
p1235
sg16
(lp1236
F12.0
aF0.0
asg25
(lp1237
I0
aI0
asg27
S'New Jersey'
p1238
sg29
(lp1239
I0
aI0
asg31
I12
sba(i__main__
District
p1240
(dp1241
g7
(lp1242
sg6
S'Southern New Jersey'
p1243
sg16
(lp1244
F12.0
aF0.0
asg25
(lp1245
I0
aI0
asg27
S'New Jersey'
p1246
sg29
(lp1247
I0
aI0
asg31
I9
sbasbsS'Washington'
p1248
(i__main__
State
p1249
(dp1250
g4
(lp1251
I6
aI2
asg6
g1248
sg7
(lp1252
sg9
(lp1253
g117
ag117
ag117
ag117
aS'7\n'
p1254
asg16
(lp1255
F660.0
aF255.0
asg18
(lp1256
(i__main__
District
p1257
(dp1258
g7
(lp1259
sg6
S'Seattle'
p1260
sg16
(lp1261
F28.0
aF13.0
asg25
(lp1262
I0
aI0
asg27
S'Washington'
p1263
sg29
(lp1264
I0
aI0
asg31
I15
sba(i__main__
District
p1265
(dp1266
g7
(lp1267
sg6
S'Central Washington'
p1268
sg16
(lp1269
F16.0
aF4.0
asg25
(lp1270
I0
aI0
asg27
S'Washington'
p1271
sg29
(lp1272
I0
aI0
asg31
I9
sba(i__main__
District
p1273
(dp1274
g7
(lp1275
sg6
S'Eastern Washington'
p1276
sg16
(lp1277
F16.0
aF4.0
asg25
(lp1278
I0
aI0
asg27
S'Washington'
p1279
sg29
(lp1280
I0
aI0
asg31
I6
sbasbsS'North Carolina'
p1281
(i__main__
State
p1282
(dp1283
g4
(lp1284
I7
aI2
asg6
g1281
sg7
(lp1285
sg9
(lp1286
S'-7'
p1287
aS'-7'
p1288
aS'-7'
p1289
aS'-7'
p1290
aS'-7\n'
p1291
asg16
(lp1292
F1761.0
aF915.0
asg18
(lp1293
(i__main__
District
p1294
(dp1295
g7
(lp1296
sg6
S'Western North Carolina'
p1297
sg16
(lp1298
F39.0
aF25.0
asg25
(lp1299
I0
aI0
asg27
S'North Carolina'
p1300
sg29
(lp1301
I0
aI0
asg31
I9
sba(i__main__
District
p1302
(dp1303
g7
(lp1304
sg6
S'Raleigh-Durham'
p1305
sg16
(lp1306
F56.0
aF20.0
asg25
(lp1307
I0
aI0
asg27
S'North Carolina'
p1308
sg29
(lp1309
I0
aI0
asg31
I12
sba(i__main__
District
p1310
(dp1311
g7
(lp1312
sg6
S'Charlotte'
p1313
sg16
(lp1314
F39.0
aF25.0
asg25
(lp1315
I0
aI0
asg27
S'North Carolina'
p1316
sg29
(lp1317
I0
aI0
asg31
I9
sba(i__main__
District
p1318
(dp1319
g7
(lp1320
sg6
S'The Coast'
p1321
sg16
(lp1322
F43.0
aF25.0
asg25
(lp1323
I0
aI0
asg27
S'North Carolina'
p1324
sg29
(lp1325
I0
aI0
asg31
I9
sbasbsS'New York'
p1326
(i__main__
State
p1327
(dp1328
g4
(lp1329
I15
aI6
asg6
g1326
sg7
(lp1330
sg9
(lp1331
S'-8'
p1332
aS'-8'
p1333
aS'-8'
p1334
aS'-8'
p1335
aS'-8\n'
p1336
asg16
(lp1337
F8985.0
aF5934.0
asg18
(lp1338
(i__main__
District
p1339
(dp1340
g7
(lp1341
sg6
S'New York'
p1342
sg16
(lp1343
F153.0
aF87.0
asg25
(lp1344
I0
aI0
asg27
S'New York'
p1345
sg29
(lp1346
I0
aI0
asg31
I33
sba(i__main__
District
p1347
(dp1348
g7
(lp1349
sg6
S'Long Island'
p1350
sg16
(lp1351
F78.0
aF88.0
asg25
(lp1352
I0
aI0
asg27
S'New York'
p1353
sg29
(lp1354
I0
aI0
asg31
I12
sba(i__main__
District
p1355
(dp1356
g7
(lp1357
sg6
S'Hudson Valley'
p1358
sg16
(lp1359
F90.0
aF65.0
asg25
(lp1360
I0
aI0
asg27
S'New York'
p1361
sg29
(lp1362
I0
aI0
asg31
I15
sba(i__main__
District
p1363
(dp1364
g7
(lp1365
sg6
S'Upstate'
p1366
sg16
(lp1367
F79.0
aF47.0
asg25
(lp1368
I0
aI0
asg27
S'New York'
p1369
sg29
(lp1370
I0
aI0
asg31
I12
sba(i__main__
District
p1371
(dp1372
g7
(lp1373
sg6
S'Buffalo and Rochester'
p1374
sg16
(lp1375
F78.0
aF52.0
asg25
(lp1376
I0
aI0
asg27
S'New York'
p1377
sg29
(lp1378
I0
aI0
asg31
I9
sbasbsS'Texas'
p1379
(i__main__
State
p1380
(dp1381
g4
(lp1382
I18
aI7
asg6
g1379
sg7
(lp1383
sg9
(lp1384
g343
ag343
ag343
ag343
aS'3\n'
p1385
asg16
(lp1386
F17106.0
aF17580.0
asg18
(lp1387
(i__main__
District
p1388
(dp1389
g7
(lp1390
sg6
S'West Texas'
p1391
sg16
(lp1392
F135.0
aF140.0
asg25
(lp1393
I1635000
aI0
asg27
S'Texas'
p1394
sg29
(lp1395
I0
aI0
asg31
I15
sba(i__main__
District
p1396
(dp1397
g7
(lp1398
sg6
S'South Texas'
p1399
sg16
(lp1400
F137.0
aF130.0
asg25
(lp1401
I505000
aI0
asg27
S'Texas'
p1402
sg29
(lp1403
I0
aI0
asg31
I12
sba(i__main__
District
p1404
(dp1405
g7
(lp1406
sg6
S'East Texas'
p1407
sg16
(lp1408
F160.0
aF153.0
asg25
(lp1409
I445000
aI0
asg27
S'Texas'
p1410
sg29
(lp1411
I2
aI0
asg31
I18
sba(i__main__
District
p1412
(dp1413
g7
(lp1414
sg6
S'Houston'
p1415
sg16
(lp1416
F179.0
aF180.0
asg25
(lp1417
I1648000
aI0
asg27
S'Texas'
p1418
sg29
(lp1419
I10
aI0
asg31
I24
sba(i__main__
District
p1420
(dp1421
g7
(lp1422
sg6
S'Dallas-Fort Worth'
p1423
sg16
(lp1424
F164.0
aF179.0
asg25
(lp1425
I2275000
aI0
asg27
S'Texas'
p1426
sg29
(lp1427
I10
aI0
asg31
I24
sba(i__main__
District
p1428
(dp1429
g7
(lp1430
sg6
S'San Antonio and Austin'
p1431
sg16
(lp1432
F155.0
aF170.0
asg25
(lp1433
I1997000
aI0
asg27
S'Texas'
p1434
sg29
(lp1435
I12
aI0
asg31
I15
sbasbsS'Nevada'
p1436
(i__main__
State
p1437
(dp1438
g4
(lp1439
I4
aI2
asg6
g1436
sg7
(lp1440
sg9
(lp1441
S'-8'
p1442
aS'-8'
p1443
aS'-8'
p1444
aS'-8'
p1445
aS'-8\n'
p1446
asg16
(lp1447
F2820.0
aF1332.0
asg18
(lp1448
(i__main__
District
p1449
(dp1450
g7
(lp1451
sg6
S'1st'
p1452
sg16
(lp1453
F235.0
aF111.0
asg25
(lp1454
I0
aI0
asg27
S'Nevada'
p1455
sg29
(lp1456
I0
aI0
asg31
I12
sbasbsS'Delaware'
p1457
(i__main__
State
p1458
(dp1459
g4
(lp1460
I5
aI0
asg6
g1457
sg7
(lp1461
sg9
(lp1462
g292
ag292
ag292
ag292
aS'8\n'
p1463
asg16
(lp1464
F90.0
aF0.0
asg18
(lp1465
(i__main__
District
p1466
(dp1467
g7
(lp1468
sg6
S'1st'
p1469
sg16
(lp1470
F30.0
aF0.0
asg25
(lp1471
I0
aI0
asg27
S'Delaware'
p1472
sg29
(lp1473
I0
aI0
asg31
I3
sbasbsS'Maine'
p1474
(i__main__
State
p1475
(dp1476
g4
(lp1477
I4
aI2
asg6
g1474
sg7
(lp1478
sg9
(lp1479
g1120
ag1120
ag1120
ag1120
aS'1\n'
p1480
asg16
(lp1481
F330.0
aF168.0
asg18
(lp1482
(i__main__
District
p1483
(dp1484
g7
(lp1485
sg6
S'1st'
p1486
sg16
(lp1487
F55.0
aF28.0
asg25
(lp1488
I0
aI0
asg27
S'Maine'
p1489
sg29
(lp1490
I0
aI0
asg31
I6
sbasbs.