(dp0
I1
(i__main__
Player
p1
(dp2
S'positions'
p3
(lp4
I0
aI0
aI0
aI0
aI0
asS'momentum'
p5
F3.25
sS'name'
p6
I1
sS'resources'
p7
(lp8
I80
aF301600.0
asS'delegateCount'
p9
I12
sbsI2
(i__main__
Player
p10
(dp11
g3
(lp12
I0
aI0
aI0
aI0
aI0
asg5
F13.0
sg6
I2
sg7
(lp13
I80
aF413200.0
asg9
I6
sbs.