(lp0
S"(dp0\nI1\n(i__main__\nPlayer\np1\n(dp2\nS'publicName'\np3\nS''\np4\nsS'name'\np5\nI1\nsS'delegateCount'\np6\nI0\nsS'positions'\np7\n(lp8\nI0\naI0\naI0\naI0\naI0\nasS'resources'\np9\n(lp10\nI80\naF66675.0\nasS'momentum'\np11\nF0.0\nsbsI2\n(i__main__\nPlayer\np12\n(dp13\ng3\ng4\nsg5\nI2\nsg6\nI0\nsg7\n(lp14\nI0\naI0\naI0\naI0\naI0\nasg9\n(lp15\nI80\naF200126.0\nasg11\nF0.0\nsbs."
p1
aS'(dp0\nS\'Mississippi\'\np1\n(i__main__\nState\np2\n(dp3\nS\'organizations\'\np4\n(lp5\nI0\naI0\nasS\'pollingAverage\'\np6\n(lp7\nF0.0\naF0.0\nasS\'name\'\np8\ng1\nsS\'opinions\'\np9\n(lp10\nsS\'positions\'\np11\n(lp12\nS\'-4\'\np13\naS\'-4\'\np14\naS\'-4\'\np15\naS\'-4\'\np16\naS\'-4\\n\'\np17\nasS\'support\'\np18\n(lp19\nF0.0\naF0.0\nasS\'districts\'\np20\n(lp21\n(i__main__\nDistrict\np22\n(dp23\ng9\n(lp24\nsg6\n(lp25\nF0.0\naF0.0\nasg8\nS\'1st\'\np26\nsg18\n(lp27\nF0.0\naF0.0\nasS\'adsThisTurn\'\np28\n(lp29\nI0\naI0\nasS\'state\'\np30\nS\'Mississippi\'\np31\nsS\'campaigningThisTurn\'\np32\n(lp33\nI0\naI0\nasS\'population\'\np34\nI12\nsbasbsS\'Oklahoma\'\np35\n(i__main__\nState\np36\n(dp37\ng4\n(lp38\nI0\naI1\nasg6\n(lp39\nF0.0\naF100.0\nasg8\ng35\nsg9\n(lp40\nsg11\n(lp41\nS\'-4\'\np42\naS\'-4\'\np43\naS\'-4\'\np44\naS\'-4\'\np45\naS\'-4\\n\'\np46\nasg18\n(lp47\nF0.0\naF30.0\nasg20\n(lp48\n(i__main__\nDistrict\np49\n(dp50\ng9\n(lp51\nsg6\n(lp52\nF0.0\naF1.8\nasg8\nS\'1st\'\np53\nsg18\n(lp54\nF0.0\naF2.0\nasg28\n(lp55\nI0\naI0\nasg30\nS\'Oklahoma\'\np56\nsg32\n(lp57\nI0\naI0\nasg34\nI15\nsbasbsS\'Delaware\'\np58\n(i__main__\nState\np59\n(dp60\ng4\n(lp61\nI0\naI0\nasg6\n(lp62\nF0.0\naF0.0\nasg8\ng58\nsg9\n(lp63\nsg11\n(lp64\nS\'8\'\np65\nag65\nag65\nag65\naS\'8\\n\'\np66\nasg18\n(lp67\nF0.0\naF0.0\nasg20\n(lp68\n(i__main__\nDistrict\np69\n(dp70\ng9\n(lp71\nsg6\n(lp72\nF0.0\naF0.0\nasg8\nS\'1st\'\np73\nsg18\n(lp74\nF0.0\naF0.0\nasg28\n(lp75\nI0\naI0\nasg30\nS\'Delaware\'\np76\nsg32\n(lp77\nI0\naI0\nasg34\nI3\nsbasbsS\'Minnesota\'\np78\n(i__main__\nState\np79\n(dp80\ng4\n(lp81\nI0\naI2\nasg6\n(lp82\nF0.0\naF100.0\nasg8\ng78\nsg9\n(lp83\nsg11\n(lp84\nS\'-3\'\np85\naS\'-3\'\np86\naS\'-3\'\np87\naS\'-3\'\np88\naS\'-3\\n\'\np89\nasg18\n(lp90\nF0.0\naF156.0\nasg20\n(lp91\n(i__main__\nDistrict\np92\n(dp93\ng9\n(lp94\nsg6\n(lp95\nF0.0\naF8.0\nasg8\nS\'Twin Cities\'\np96\nsg18\n(lp97\nF0.0\naF9.0\nasg28\n(lp98\nI0\naI0\nasg30\nS\'Minnesota\'\np99\nsg32\n(lp100\nI0\naI0\nasg34\nI12\nsba(i__main__\nDistrict\np101\n(dp102\ng9\n(lp103\nsg6\n(lp104\nF0.0\naF3.6\nasg8\nS\'Southern Minnesota\'\np105\nsg18\n(lp106\nF0.0\naF4.0\nasg28\n(lp107\nI0\naI0\nasg30\nS\'Minnesota\'\np108\nsg32\n(lp109\nI0\naI0\nasg34\nI6\nsba(i__main__\nDistrict\np110\n(dp111\ng9\n(lp112\nsg6\n(lp113\nF0.0\naF3.6\nasg8\nS\'Northern Minnesota\'\np114\nsg18\n(lp115\nF0.0\naF4.0\nasg28\n(lp116\nI0\naI0\nasg30\nS\'Minnesota\'\np117\nsg32\n(lp118\nI0\naI0\nasg34\nI6\nsbasbsS\'Illinois\'\np119\n(i__main__\nState\np120\n(dp121\ng4\n(lp122\nI0\naI0\nasg6\n(lp123\nF0.0\naF0.0\nasg8\ng119\nsg9\n(lp124\nsg11\n(lp125\nS\'7\'\np126\nag126\nag126\nag126\naS\'7\\n\'\np127\nasg18\n(lp128\nF0.0\naF0.0\nasg20\n(lp129\n(i__main__\nDistrict\np130\n(dp131\ng9\n(lp132\nsg6\n(lp133\nF0.0\naF0.0\nasg8\nS\'Chicago\'\np134\nsg18\n(lp135\nF0.0\naF0.0\nasg28\n(lp136\nI0\naI0\nasg30\nS\'Illinois\'\np137\nsg32\n(lp138\nI0\naI0\nasg34\nI12\nsba(i__main__\nDistrict\np139\n(dp140\ng9\n(lp141\nsg6\n(lp142\nF0.0\naF0.0\nasg8\nS\'Chicago Suburbs\'\np143\nsg18\n(lp144\nF0.0\naF0.0\nasg28\n(lp145\nI0\naI0\nasg30\nS\'Illinois\'\np146\nsg32\n(lp147\nI0\naI0\nasg34\nI24\nsba(i__main__\nDistrict\np148\n(dp149\ng9\n(lp150\nsg6\n(lp151\nF0.0\naF0.0\nasg8\nS\'Southern Illinois\'\np152\nsg18\n(lp153\nF0.0\naF0.0\nasg28\n(lp154\nI0\naI0\nasg30\nS\'Illinois\'\np155\nsg32\n(lp156\nI0\naI0\nasg34\nI9\nsba(i__main__\nDistrict\np157\n(dp158\ng9\n(lp159\nsg6\n(lp160\nF0.0\naF0.0\nasg8\nS\'Northern Illinois\'\np161\nsg18\n(lp162\nF0.0\naF0.0\nasg28\n(lp163\nI0\naI0\nasg30\nS\'Illinois\'\np164\nsg32\n(lp165\nI0\naI0\nasg34\nI9\nsbasbsS\'Arkansas\'\np166\n(i__main__\nState\np167\n(dp168\ng4\n(lp169\nI0\naI2\nasg6\n(lp170\nF0.0\naF100.0\nasg8\ng166\nsg9\n(lp171\nsg11\n(lp172\nS\'4\'\np173\nag173\nag173\nag173\naS\'4\\n\'\np174\nasg18\n(lp175\nF0.0\naF108.0\nasg20\n(lp176\n(i__main__\nDistrict\np177\n(dp178\ng9\n(lp179\nsg6\n(lp180\nF0.0\naF8.0\nasg8\nS\'1st\'\np181\nsg18\n(lp182\nF0.0\naF9.0\nasg28\n(lp183\nI0\naI0\nasg30\nS\'Arkansas\'\np184\nsg32\n(lp185\nI0\naI0\nasg34\nI12\nsbasbsS\'New Mexico\'\np186\n(i__main__\nState\np187\n(dp188\ng4\n(lp189\nI0\naI0\nasg6\n(lp190\nF0.0\naF0.0\nasg8\ng186\nsg9\n(lp191\nsg11\n(lp192\nS\'-9\'\np193\naS\'-9\'\np194\naS\'-9\'\np195\naS\'-9\'\np196\naS\'-9\\n\'\np197\nasg18\n(lp198\nF0.0\naF0.0\nasg20\n(lp199\n(i__main__\nDistrict\np200\n(dp201\ng9\n(lp202\nsg6\n(lp203\nF0.0\naF0.0\nasg8\nS\'1st\'\np204\nsg18\n(lp205\nF0.0\naF0.0\nasg28\n(lp206\nI0\naI0\nasg30\nS\'New Mexico\'\np207\nsg32\n(lp208\nI0\naI0\nasg34\nI9\nsbasbsS\'Indiana\'\np209\n(i__main__\nState\np210\n(dp211\ng4\n(lp212\nI0\naI0\nasg6\n(lp213\nF0.0\naF0.0\nasg8\ng209\nsg9\n(lp214\nsg11\n(lp215\nS\'6\'\np216\nag216\nag216\nag216\naS\'6\\n\'\np217\nasg18\n(lp218\nF0.0\naF0.0\nasg20\n(lp219\n(i__main__\nDistrict\np220\n(dp221\ng9\n(lp222\nsg6\n(lp223\nF0.0\naF0.0\nasg8\nS\'Northern Indiana\'\np224\nsg18\n(lp225\nF0.0\naF0.0\nasg28\n(lp226\nI0\naI0\nasg30\nS\'Indiana\'\np227\nsg32\n(lp228\nI0\naI0\nasg34\nI9\nsba(i__main__\nDistrict\np229\n(dp230\ng9\n(lp231\nsg6\n(lp232\nF0.0\naF0.0\nasg8\nS\'Central Indiana\'\np233\nsg18\n(lp234\nF0.0\naF0.0\nasg28\n(lp235\nI0\naI0\nasg30\nS\'Indiana\'\np236\nsg32\n(lp237\nI0\naI0\nasg34\nI9\nsba(i__main__\nDistrict\np238\n(dp239\ng9\n(lp240\nsg6\n(lp241\nF0.0\naF0.0\nasg8\nS\'Southern Indiana\'\np242\nsg18\n(lp243\nF0.0\naF0.0\nasg28\n(lp244\nI0\naI0\nasg30\nS\'Indiana\'\np245\nsg32\n(lp246\nI0\naI0\nasg34\nI9\nsbasbsS\'Maryland\'\np247\n(i__main__\nState\np248\n(dp249\ng4\n(lp250\nI0\naI0\nasg6\n(lp251\nF0.0\naF0.0\nasg8\ng247\nsg9\n(lp252\nsg11\n(lp253\nS\'0\'\np254\nag254\nag254\nag254\naS\'0\\n\'\np255\nasg18\n(lp256\nF0.0\naF0.0\nasg20\n(lp257\n(i__main__\nDistrict\np258\n(dp259\ng9\n(lp260\nsg6\n(lp261\nF0.0\naF0.0\nasg8\nS\'Balitmore\'\np262\nsg18\n(lp263\nF0.0\naF0.0\nasg28\n(lp264\nI0\naI0\nasg30\nS\'Maryland\'\np265\nsg32\n(lp266\nI0\naI0\nasg34\nI9\nsba(i__main__\nDistrict\np267\n(dp268\ng9\n(lp269\nsg6\n(lp270\nF0.0\naF0.0\nasg8\nS\'DC Suburbs and Annapolis\'\np271\nsg18\n(lp272\nF0.0\naF0.0\nasg28\n(lp273\nI0\naI0\nasg30\nS\'Maryland\'\np274\nsg32\n(lp275\nI0\naI0\nasg34\nI6\nsba(i__main__\nDistrict\np276\n(dp277\ng9\n(lp278\nsg6\n(lp279\nF0.0\naF0.0\nasg8\nS\'Northern Maryland\'\np280\nsg18\n(lp281\nF0.0\naF0.0\nasg28\n(lp282\nI0\naI0\nasg30\nS\'Maryland\'\np283\nsg32\n(lp284\nI0\naI0\nasg34\nI9\nsbasbsS\'Louisiana\'\np285\n(i__main__\nState\np286\n(dp287\ng4\n(lp288\nI0\naI0\nasg6\n(lp289\nF0.0\naF0.0\nasg8\ng285\nsg9\n(lp290\nsg11\n(lp291\nS\'2\'\np292\nag292\nag292\nag292\naS\'2\\n\'\np293\nasg18\n(lp294\nF0.0\naF0.0\nasg20\n(lp295\n(i__main__\nDistrict\np296\n(dp297\ng9\n(lp298\nsg6\n(lp299\nF0.0\naF0.0\nasg8\nS\'North and Western Louisiana\'\np300\nsg18\n(lp301\nF0.0\naF0.0\nasg28\n(lp302\nI0\naI0\nasg30\nS\'Louisiana\'\np303\nsg32\n(lp304\nI0\naI0\nasg34\nI9\nsba(i__main__\nDistrict\np305\n(dp306\ng9\n(lp307\nsg6\n(lp308\nF0.0\naF0.0\nasg8\nS\'New Orleans\'\np309\nsg18\n(lp310\nF0.0\naF0.0\nasg28\n(lp311\nI0\naI0\nasg30\nS\'Louisiana\'\np312\nsg32\n(lp313\nI0\naI0\nasg34\nI9\nsbasbsS\'Idaho\'\np314\n(i__main__\nState\np315\n(dp316\ng4\n(lp317\nI0\naI0\nasg6\n(lp318\nF0.0\naF0.0\nasg8\ng314\nsg9\n(lp319\nsg11\n(lp320\ng65\nag65\nag65\nag65\naS\'8\\n\'\np321\nasg18\n(lp322\nF0.0\naF0.0\nasg20\n(lp323\n(i__main__\nDistrict\np324\n(dp325\ng9\n(lp326\nsg6\n(lp327\nF0.0\naF0.0\nasg8\nS\'1st\'\np328\nsg18\n(lp329\nF0.0\naF0.0\nasg28\n(lp330\nI0\naI0\nasg30\nS\'Idaho\'\np331\nsg32\n(lp332\nI0\naI0\nasg34\nI6\nsbasbsS\'Wyoming\'\np333\n(i__main__\nState\np334\n(dp335\ng4\n(lp336\nI0\naI0\nasg6\n(lp337\nF0.0\naF0.0\nasg8\ng333\nsg9\n(lp338\nsg11\n(lp339\nS\'10\'\np340\naS\'10\'\np341\naS\'10\'\np342\naS\'10\'\np343\naS\'10\\n\'\np344\nasg18\n(lp345\nF0.0\naF0.0\nasg20\n(lp346\n(i__main__\nDistrict\np347\n(dp348\ng9\n(lp349\nsg6\n(lp350\nF0.0\naF0.0\nasg8\nS\'1st\'\np351\nsg18\n(lp352\nF0.0\naF0.0\nasg28\n(lp353\nI0\naI0\nasg30\nS\'Wyoming\'\np354\nsg32\n(lp355\nI0\naI0\nasg34\nI3\nsbasbsS\'Tennessee\'\np356\n(i__main__\nState\np357\n(dp358\ng4\n(lp359\nI0\naI2\nasg6\n(lp360\nF0.0\naF100.0\nasg8\ng356\nsg9\n(lp361\nsg11\n(lp362\ng292\nag292\nag292\nag292\naS\'2\\n\'\np363\nasg18\n(lp364\nF0.0\naF114.0\nasg20\n(lp365\n(i__main__\nDistrict\np366\n(dp367\ng9\n(lp368\nsg6\n(lp369\nF0.0\naF6.3\nasg8\nS\'Central Tennessee\'\np370\nsg18\n(lp371\nF0.0\naF7.0\nasg28\n(lp372\nI0\naI0\nasg30\nS\'Tennessee\'\np373\nsg32\n(lp374\nI0\naI0\nasg34\nI12\nsba(i__main__\nDistrict\np375\n(dp376\ng9\n(lp377\nsg6\n(lp378\nF0.0\naF1.8\nasg8\nS\'Eastern Tennessee\'\np379\nsg18\n(lp380\nF0.0\naF2.0\nasg28\n(lp381\nI0\naI0\nasg30\nS\'Tennessee\'\np382\nsg32\n(lp383\nI0\naI0\nasg34\nI9\nsba(i__main__\nDistrict\np384\n(dp385\ng9\n(lp386\nsg6\n(lp387\nF0.0\naF1.8\nasg8\nS\'Memphis and Western Tennessee\'\np388\nsg18\n(lp389\nF0.0\naF2.0\nasg28\n(lp390\nI0\naI0\nasg30\nS\'Tennessee\'\np391\nsg32\n(lp392\nI0\naI0\nasg34\nI6\nsbasbsS\'Arizona\'\np393\n(i__main__\nState\np394\n(dp395\ng4\n(lp396\nI0\naI0\nasg6\n(lp397\nF0.0\naF0.0\nasg8\ng393\nsg9\n(lp398\nsg11\n(lp399\nS\'3\'\np400\nag400\nag400\nag400\naS\'3\\n\'\np401\nasg18\n(lp402\nF0.0\naF0.0\nasg20\n(lp403\n(i__main__\nDistrict\np404\n(dp405\ng9\n(lp406\nsg6\n(lp407\nF0.0\naF0.0\nasg8\nS\'Phoenix\'\np408\nsg18\n(lp409\nF0.0\naF0.0\nasg28\n(lp410\nI0\naI0\nasg30\nS\'Arizona\'\np411\nsg32\n(lp412\nI0\naI0\nasg34\nI15\nsba(i__main__\nDistrict\np413\n(dp414\ng9\n(lp415\nsg6\n(lp416\nF0.0\naF0.0\nasg8\nS\'Southern Arizona\'\np417\nsg18\n(lp418\nF0.0\naF0.0\nasg28\n(lp419\nI0\naI0\nasg30\nS\'Arizona\'\np420\nsg32\n(lp421\nI0\naI0\nasg34\nI6\nsba(i__main__\nDistrict\np422\n(dp423\ng9\n(lp424\nsg6\n(lp425\nF0.0\naF0.0\nasg8\nS\'Northern Arizona\'\np426\nsg18\n(lp427\nF0.0\naF0.0\nasg28\n(lp428\nI0\naI0\nasg30\nS\'Arizona\'\np429\nsg32\n(lp430\nI0\naI0\nasg34\nI6\nsbasbsS\'Iowa\'\np431\n(i__main__\nState\np432\n(dp433\ng4\n(lp434\nI0\naI2\nasg6\n(lp435\nF0.0\naF100.0\nasg8\ng431\nsg9\n(lp436\nsg11\n(lp437\nS\'5\'\np438\nag438\nag438\nag438\naS\'5\\n\'\np439\nasg18\n(lp440\nF0.0\naF312.0\nasg20\n(lp441\n(i__main__\nDistrict\np442\n(dp443\ng9\n(lp444\nsg6\n(lp445\nF0.0\naF21.4\nasg8\nS\'1st\'\np446\nsg18\n(lp447\nF0.0\naF26.0\nasg28\n(lp448\nI0\naI0\nasg30\nS\'Iowa\'\np449\nsg32\n(lp450\nI0\naI0\nasg34\nI12\nsbasbsS\'Michigan\'\np451\n(i__main__\nState\np452\n(dp453\ng4\n(lp454\nI0\naI0\nasg6\n(lp455\nF0.0\naF0.0\nasg8\ng451\nsg9\n(lp456\nsg11\n(lp457\nS\'-2\'\np458\naS\'-2\'\np459\naS\'-2\'\np460\naS\'-2\'\np461\naS\'-2\\n\'\np462\nasg18\n(lp463\nF0.0\naF0.0\nasg20\n(lp464\n(i__main__\nDistrict\np465\n(dp466\ng9\n(lp467\nsg6\n(lp468\nF0.0\naF0.0\nasg8\nS\'Detroit\'\np469\nsg18\n(lp470\nF0.0\naF0.0\nasg28\n(lp471\nI0\naI0\nasg30\nS\'Michigan\'\np472\nsg32\n(lp473\nI0\naI0\nasg34\nI15\nsba(i__main__\nDistrict\np474\n(dp475\ng9\n(lp476\nsg6\n(lp477\nF0.0\naF0.0\nasg8\nS\'Southwest Michigan\'\np478\nsg18\n(lp479\nF0.0\naF0.0\nasg28\n(lp480\nI0\naI0\nasg30\nS\'Michigan\'\np481\nsg32\n(lp482\nI0\naI0\nasg34\nI12\nsba(i__main__\nDistrict\np483\n(dp484\ng9\n(lp485\nsg6\n(lp486\nF0.0\naF0.0\nasg8\nS"Michigan\'s Rust Belt"\np487\nsg18\n(lp488\nF0.0\naF0.0\nasg28\n(lp489\nI0\naI0\nasg30\nS\'Michigan\'\np490\nsg32\n(lp491\nI0\naI0\nasg34\nI12\nsba(i__main__\nDistrict\np492\n(dp493\ng9\n(lp494\nsg6\n(lp495\nF0.0\naF0.0\nasg8\nS\'Northern Michigan\'\np496\nsg18\n(lp497\nF0.0\naF0.0\nasg28\n(lp498\nI0\naI0\nasg30\nS\'Michigan\'\np499\nsg32\n(lp500\nI0\naI0\nasg34\nI3\nsbasbsS\'Kansas\'\np501\n(i__main__\nState\np502\n(dp503\ng4\n(lp504\nI0\naI0\nasg6\n(lp505\nF0.0\naF0.0\nasg8\ng501\nsg9\n(lp506\nsg11\n(lp507\ng173\nag173\nag173\nag173\naS\'4\\n\'\np508\nasg18\n(lp509\nF0.0\naF0.0\nasg20\n(lp510\n(i__main__\nDistrict\np511\n(dp512\ng9\n(lp513\nsg6\n(lp514\nF0.0\naF0.0\nasg8\nS\'1st\'\np515\nsg18\n(lp516\nF0.0\naF0.0\nasg28\n(lp517\nI0\naI0\nasg30\nS\'Kansas\'\np518\nsg32\n(lp519\nI0\naI0\nasg34\nI12\nsbasbsS\'Utah\'\np520\n(i__main__\nState\np521\n(dp522\ng4\n(lp523\nI0\naI0\nasg6\n(lp524\nF0.0\naF0.0\nasg8\ng520\nsg9\n(lp525\nsg11\n(lp526\ng173\nag173\nag173\nag173\naS\'4\\n\'\np527\nasg18\n(lp528\nF0.0\naF0.0\nasg20\n(lp529\n(i__main__\nDistrict\np530\n(dp531\ng9\n(lp532\nsg6\n(lp533\nF0.0\naF0.0\nasg8\nS\'1st\'\np534\nsg18\n(lp535\nF0.0\naF0.0\nasg28\n(lp536\nI0\naI0\nasg30\nS\'Utah\'\np537\nsg32\n(lp538\nI0\naI0\nasg34\nI12\nsbasbsS\'Virginia\'\np539\n(i__main__\nState\np540\n(dp541\ng4\n(lp542\nI0\naI0\nasg6\n(lp543\nF0.0\naF0.0\nasg8\ng539\nsg9\n(lp544\nsg11\n(lp545\ng216\nag216\nag216\nag216\naS\'6\\n\'\np546\nasg18\n(lp547\nF0.0\naF0.0\nasg20\n(lp548\n(i__main__\nDistrict\np549\n(dp550\ng9\n(lp551\nsg6\n(lp552\nF0.0\naF0.0\nasg8\nS\'DC Suburbs\'\np553\nsg18\n(lp554\nF0.0\naF0.0\nasg28\n(lp555\nI0\naI0\nasg30\nS\'Virginia\'\np556\nsg32\n(lp557\nI0\naI0\nasg34\nI9\nsba(i__main__\nDistrict\np558\n(dp559\ng9\n(lp560\nsg6\n(lp561\nF0.0\naF0.0\nasg8\nS\'Virginia Coast\'\np562\nsg18\n(lp563\nF0.0\naF0.0\nasg28\n(lp564\nI0\naI0\nasg30\nS\'Virginia\'\np565\nsg32\n(lp566\nI0\naI0\nasg34\nI15\nsba(i__main__\nDistrict\np567\n(dp568\ng9\n(lp569\nsg6\n(lp570\nF0.0\naF0.0\nasg8\nS\'Western Virginia\'\np571\nsg18\n(lp572\nF0.0\naF0.0\nasg28\n(lp573\nI0\naI0\nasg30\nS\'Virginia\'\np574\nsg32\n(lp575\nI0\naI0\nasg34\nI9\nsbasbsS\'Oregon\'\np576\n(i__main__\nState\np577\n(dp578\ng4\n(lp579\nI0\naI0\nasg6\n(lp580\nF0.0\naF0.0\nasg8\ng576\nsg9\n(lp581\nsg11\n(lp582\nS\'-3\'\np583\naS\'-3\'\np584\naS\'-3\'\np585\naS\'-3\'\np586\naS\'-3\\n\'\np587\nasg18\n(lp588\nF0.0\naF0.0\nasg20\n(lp589\n(i__main__\nDistrict\np590\n(dp591\ng9\n(lp592\nsg6\n(lp593\nF0.0\naF0.0\nasg8\nS\'Portland and Salem\'\np594\nsg18\n(lp595\nF0.0\naF0.0\nasg28\n(lp596\nI0\naI0\nasg30\nS\'Oregon\'\np597\nsg32\n(lp598\nI0\naI0\nasg34\nI9\nsba(i__main__\nDistrict\np599\n(dp600\ng9\n(lp601\nsg6\n(lp602\nF0.0\naF0.0\nasg8\nS\'Southern and Easthern Oregon\'\np603\nsg18\n(lp604\nF0.0\naF0.0\nasg28\n(lp605\nI0\naI0\nasg30\nS\'Oregon\'\np606\nsg32\n(lp607\nI0\naI0\nasg34\nI6\nsbasbsS\'Connecticut\'\np608\n(i__main__\nState\np609\n(dp610\ng4\n(lp611\nI0\naI0\nasg6\n(lp612\nF0.0\naF0.0\nasg8\ng608\nsg9\n(lp613\nsg11\n(lp614\ng126\nag126\nag126\nag126\naS\'7\\n\'\np615\nasg18\n(lp616\nF0.0\naF0.0\nasg20\n(lp617\n(i__main__\nDistrict\np618\n(dp619\ng9\n(lp620\nsg6\n(lp621\nF0.0\naF0.0\nasg8\nS\'New York Suburbs\'\np622\nsg18\n(lp623\nF0.0\naF0.0\nasg28\n(lp624\nI0\naI0\nasg30\nS\'Connecticut\'\np625\nsg32\n(lp626\nI0\naI0\nasg34\nI6\nsba(i__main__\nDistrict\np627\n(dp628\ng9\n(lp629\nsg6\n(lp630\nF0.0\naF0.0\nasg8\nS\'North-East Connecticut\'\np631\nsg18\n(lp632\nF0.0\naF0.0\nasg28\n(lp633\nI0\naI0\nasg30\nS\'Connecticut\'\np634\nsg32\n(lp635\nI0\naI0\nasg34\nI9\nsbasbsS\'Montana\'\np636\n(i__main__\nState\np637\n(dp638\ng4\n(lp639\nI0\naI0\nasg6\n(lp640\nF0.0\naF0.0\nasg8\ng636\nsg9\n(lp641\nsg11\n(lp642\nS\'-6\'\np643\naS\'-6\'\np644\naS\'-6\'\np645\naS\'-6\'\np646\naS\'-6\\n\'\np647\nasg18\n(lp648\nF0.0\naF0.0\nasg20\n(lp649\n(i__main__\nDistrict\np650\n(dp651\ng9\n(lp652\nsg6\n(lp653\nF0.0\naF0.0\nasg8\nS\'1st\'\np654\nsg18\n(lp655\nF0.0\naF0.0\nasg28\n(lp656\nI0\naI0\nasg30\nS\'Montana\'\np657\nsg32\n(lp658\nI0\naI0\nasg34\nI3\nsbasbsS\'California\'\np659\n(i__main__\nState\np660\n(dp661\ng4\n(lp662\nI4\naI0\nasg6\n(lp663\nF100.0\naF0.0\nasg8\ng659\nsg9\n(lp664\nsg11\n(lp665\ng438\nag438\nag438\nag438\naS\'5\\n\'\np666\nasg18\n(lp667\nF2625.0\naF0.0\nasg20\n(lp668\n(i__main__\nDistrict\np669\n(dp670\ng9\n(lp671\nsg6\n(lp672\nF13.1\naF0.0\nasg8\nS\'San Diego\'\np673\nsg18\n(lp674\nF15.0\naF0.0\nasg28\n(lp675\nI0\naI0\nasg30\nS\'California\'\np676\nsg32\n(lp677\nI0\naI0\nasg34\nI15\nsba(i__main__\nDistrict\np678\n(dp679\ng9\n(lp680\nsg6\n(lp681\nF13.1\naF0.0\nasg8\nS\'Orange County and the Inland Empire\'\np682\nsg18\n(lp683\nF15.0\naF0.0\nasg28\n(lp684\nI0\naI0\nasg30\nS\'California\'\np685\nsg32\n(lp686\nI0\naI0\nasg34\nI21\nsba(i__main__\nDistrict\np687\n(dp688\ng9\n(lp689\nsg6\n(lp690\nF20.9\naF0.0\nasg8\nS\'Los Angeles\'\np691\nsg18\n(lp692\nF25.0\naF0.0\nasg28\n(lp693\nI0\naI0\nasg30\nS\'California\'\np694\nsg32\n(lp695\nI0\naI0\nasg34\nI45\nsba(i__main__\nDistrict\np696\n(dp697\ng9\n(lp698\nsg6\n(lp699\nF13.1\naF0.0\nasg8\nS\'Central Coast\'\np700\nsg18\n(lp701\nF15.0\naF0.0\nasg28\n(lp702\nI0\naI0\nasg30\nS\'California\'\np703\nsg32\n(lp704\nI0\naI0\nasg34\nI12\nsba(i__main__\nDistrict\np705\n(dp706\ng9\n(lp707\nsg6\n(lp708\nF13.1\naF0.0\nasg8\nS\'Bay Area\'\np709\nsg18\n(lp710\nF15.0\naF0.0\nasg28\n(lp711\nI0\naI0\nasg30\nS\'California\'\np712\nsg32\n(lp713\nI0\naI0\nasg34\nI24\nsba(i__main__\nDistrict\np714\n(dp715\ng9\n(lp716\nsg6\n(lp717\nF8.9\naF0.0\nasg8\nS\'Central Valley\'\np718\nsg18\n(lp719\nF10.0\naF0.0\nasg28\n(lp720\nI0\naI0\nasg30\nS\'California\'\np721\nsg32\n(lp722\nI0\naI0\nasg34\nI24\nsba(i__main__\nDistrict\np723\n(dp724\ng9\n(lp725\nsg6\n(lp726\nF8.9\naF0.0\nasg8\nS\'Northern California and the Sierras\'\np727\nsg18\n(lp728\nF10.0\naF0.0\nasg28\n(lp729\nI0\naI0\nasg30\nS\'California\'\np730\nsg32\n(lp731\nI0\naI0\nasg34\nI18\nsbasbsS\'Massachusetts\'\np732\n(i__main__\nState\np733\n(dp734\ng4\n(lp735\nI0\naI2\nasg6\n(lp736\nF0.0\naF100.0\nasg8\ng732\nsg9\n(lp737\nsg11\n(lp738\nS\'-1\'\np739\naS\'-1\'\np740\naS\'-1\'\np741\naS\'-1\'\np742\naS\'-1\\n\'\np743\nasg18\n(lp744\nF0.0\naF180.0\nasg20\n(lp745\n(i__main__\nDistrict\np746\n(dp747\ng9\n(lp748\nsg6\n(lp749\nF0.0\naF8.0\nasg8\nS\'Boston\'\np750\nsg18\n(lp751\nF0.0\naF9.0\nasg28\n(lp752\nI0\naI0\nasg30\nS\'Massachusetts\'\np753\nsg32\n(lp754\nI0\naI0\nasg34\nI12\nsba(i__main__\nDistrict\np755\n(dp756\ng9\n(lp757\nsg6\n(lp758\nF0.0\naF3.6\nasg8\nS\'Southeast Massachusetts\'\np759\nsg18\n(lp760\nF0.0\naF4.0\nasg28\n(lp761\nI0\naI0\nasg30\nS\'Massachusetts\'\np762\nsg32\n(lp763\nI0\naI0\nasg34\nI9\nsba(i__main__\nDistrict\np764\n(dp765\ng9\n(lp766\nsg6\n(lp767\nF0.0\naF3.6\nasg8\nS\'Western Massachusetts\'\np768\nsg18\n(lp769\nF0.0\naF4.0\nasg28\n(lp770\nI0\naI0\nasg30\nS\'Massachusetts\'\np771\nsg32\n(lp772\nI0\naI0\nasg34\nI9\nsbasbsS\'West Virginia\'\np773\n(i__main__\nState\np774\n(dp775\ng4\n(lp776\nI0\naI0\nasg6\n(lp777\nF0.0\naF0.0\nasg8\ng773\nsg9\n(lp778\nsg11\n(lp779\ng65\nag65\nag65\nag65\naS\'8\\n\'\np780\nasg18\n(lp781\nF0.0\naF0.0\nasg20\n(lp782\n(i__main__\nDistrict\np783\n(dp784\ng9\n(lp785\nsg6\n(lp786\nF0.0\naF0.0\nasg8\nS\'1st\'\np787\nsg18\n(lp788\nF0.0\naF0.0\nasg28\n(lp789\nI0\naI0\nasg30\nS\'West Virginia\'\np790\nsg32\n(lp791\nI0\naI0\nasg34\nI9\nsbasbsS\'South Carolina\'\np792\n(i__main__\nState\np793\n(dp794\ng4\n(lp795\nI0\naI2\nasg6\n(lp796\nF0.0\naF100.0\nasg8\ng792\nsg9\n(lp797\nsg11\n(lp798\ng254\nag254\nag254\nag254\naS\'0\\n\'\np799\nasg18\n(lp800\nF0.0\naF231.0\nasg20\n(lp801\n(i__main__\nDistrict\np802\n(dp803\ng9\n(lp804\nsg6\n(lp805\nF0.0\naF9.7\nasg8\nS\'Inland South Carolina\'\np806\nsg18\n(lp807\nF0.0\naF11.0\nasg28\n(lp808\nI0\naI0\nasg30\nS\'South Carolina\'\np809\nsg32\n(lp810\nI0\naI0\nasg34\nI12\nsba(i__main__\nDistrict\np811\n(dp812\ng9\n(lp813\nsg6\n(lp814\nF0.0\naF9.7\nasg8\nS\'Coastal South Carolina\'\np815\nsg18\n(lp816\nF0.0\naF11.0\nasg28\n(lp817\nI0\naI0\nasg30\nS\'South Carolina\'\np818\nsg32\n(lp819\nI0\naI0\nasg34\nI9\nsbasbsS\'New Hampshire\'\np820\n(i__main__\nState\np821\n(dp822\ng4\n(lp823\nI2\naI2\nasg6\n(lp824\nF40.9\naF59.1\nasg8\ng820\nsg9\n(lp825\nsg11\n(lp826\nS\'-9\'\np827\naS\'-9\'\np828\naS\'-9\'\np829\naS\'-9\'\np830\naS\'-9\\n\'\np831\nasg18\n(lp832\nF108.0\naF156.0\nasg20\n(lp833\n(i__main__\nDistrict\np834\n(dp835\ng9\n(lp836\nsg6\n(lp837\nF13.7\naF19.8\nasg8\nS\'1st\'\np838\nsg18\n(lp839\nF18.0\naF26.0\nasg28\n(lp840\nI0\naI0\nasg30\nS\'New Hampshire\'\np841\nsg32\n(lp842\nI0\naI0\nasg34\nI6\nsbasbsS\'Wisconsin\'\np843\n(i__main__\nState\np844\n(dp845\ng4\n(lp846\nI0\naI0\nasg6\n(lp847\nF0.0\naF0.0\nasg8\ng843\nsg9\n(lp848\nsg11\n(lp849\nS\'9\'\np850\nag850\nag850\nag850\naS\'9\\n\'\np851\nasg18\n(lp852\nF0.0\naF0.0\nasg20\n(lp853\n(i__main__\nDistrict\np854\n(dp855\ng9\n(lp856\nsg6\n(lp857\nF0.0\naF0.0\nasg8\nS\'Milwaukee\'\np858\nsg18\n(lp859\nF0.0\naF0.0\nasg28\n(lp860\nI0\naI0\nasg30\nS\'Wisconsin\'\np861\nsg32\n(lp862\nI0\naI0\nasg34\nI9\nsba(i__main__\nDistrict\np863\n(dp864\ng9\n(lp865\nsg6\n(lp866\nF0.0\naF0.0\nasg8\nS\'Northern Wisconsin\'\np867\nsg18\n(lp868\nF0.0\naF0.0\nasg28\n(lp869\nI0\naI0\nasg30\nS\'Wisconsin\'\np870\nsg32\n(lp871\nI0\naI0\nasg34\nI6\nsba(i__main__\nDistrict\np872\n(dp873\ng9\n(lp874\nsg6\n(lp875\nF0.0\naF0.0\nasg8\nS\'Central Wisconsin\'\np876\nsg18\n(lp877\nF0.0\naF0.0\nasg28\n(lp878\nI0\naI0\nasg30\nS\'Wisconsin\'\np879\nsg32\n(lp880\nI0\naI0\nasg34\nI9\nsbasbsS\'Vermont\'\np881\n(i__main__\nState\np882\n(dp883\ng4\n(lp884\nI0\naI0\nasg6\n(lp885\nF0.0\naF0.0\nasg8\ng881\nsg9\n(lp886\nsg11\n(lp887\ng438\nag438\nag438\nag438\naS\'5\\n\'\np888\nasg18\n(lp889\nF0.0\naF0.0\nasg20\n(lp890\n(i__main__\nDistrict\np891\n(dp892\ng9\n(lp893\nsg6\n(lp894\nF0.0\naF0.0\nasg8\nS\'1st\'\np895\nsg18\n(lp896\nF0.0\naF0.0\nasg28\n(lp897\nI0\naI0\nasg30\nS\'Vermont\'\np898\nsg32\n(lp899\nI0\naI0\nasg34\nI3\nsbasbsS\'Georgia\'\np900\n(i__main__\nState\np901\n(dp902\ng4\n(lp903\nI0\naI2\nasg6\n(lp904\nF0.0\naF100.0\nasg8\ng900\nsg9\n(lp905\nsg11\n(lp906\nS\'10\'\np907\naS\'10\'\np908\naS\'10\'\np909\naS\'10\'\np910\naS\'10\\n\'\np911\nasg18\n(lp912\nF0.0\naF348.0\nasg20\n(lp913\n(i__main__\nDistrict\np914\n(dp915\ng9\n(lp916\nsg6\n(lp917\nF0.0\naF12.2\nasg8\nS\'Atlanta\'\np918\nsg18\n(lp919\nF0.0\naF14.0\nasg28\n(lp920\nI0\naI0\nasg30\nS\'Georgia\'\np921\nsg32\n(lp922\nI0\naI0\nasg34\nI18\nsba(i__main__\nDistrict\np923\n(dp924\ng9\n(lp925\nsg6\n(lp926\nF0.0\naF3.6\nasg8\nS\'Northern Georgia\'\np927\nsg18\n(lp928\nF0.0\naF4.0\nasg28\n(lp929\nI0\naI0\nasg30\nS\'Georgia\'\np930\nsg32\n(lp931\nI0\naI0\nasg34\nI12\nsba(i__main__\nDistrict\np932\n(dp933\ng9\n(lp934\nsg6\n(lp935\nF0.0\naF3.6\nasg8\nS\'Southern Georgia\'\np936\nsg18\n(lp937\nF0.0\naF4.0\nasg28\n(lp938\nI0\naI0\nasg30\nS\'Georgia\'\np939\nsg32\n(lp940\nI0\naI0\nasg34\nI12\nsbasbsS\'North Dakota\'\np941\n(i__main__\nState\np942\n(dp943\ng4\n(lp944\nI0\naI2\nasg6\n(lp945\nF0.0\naF100.0\nasg8\ng941\nsg9\n(lp946\nsg11\n(lp947\nS\'-6\'\np948\naS\'-6\'\np949\naS\'-6\'\np950\naS\'-6\'\np951\naS\'-6\\n\'\np952\nasg18\n(lp953\nF0.0\naF12.0\nasg20\n(lp954\n(i__main__\nDistrict\np955\n(dp956\ng9\n(lp957\nsg6\n(lp958\nF0.0\naF3.6\nasg8\nS\'1st\'\np959\nsg18\n(lp960\nF0.0\naF4.0\nasg28\n(lp961\nI0\naI0\nasg30\nS\'North Dakota\'\np962\nsg32\n(lp963\nI0\naI0\nasg34\nI3\nsbasbsS\'Pennsylvania\'\np964\n(i__main__\nState\np965\n(dp966\ng4\n(lp967\nI2\naI0\nasg6\n(lp968\nF100.0\naF0.0\nasg8\ng964\nsg9\n(lp969\nsg11\n(lp970\nS\'-2\'\np971\naS\'-2\'\np972\naS\'-2\'\np973\naS\'-2\'\np974\naS\'-2\\n\'\np975\nasg18\n(lp976\nF576.0\naF0.0\nasg20\n(lp977\n(i__main__\nDistrict\np978\n(dp979\ng9\n(lp980\nsg6\n(lp981\nF3.6\naF0.0\nasg8\nS\'Central Pennsylvania\'\np982\nsg18\n(lp983\nF4.0\naF0.0\nasg28\n(lp984\nI0\naI0\nasg30\nS\'Pennsylvania\'\np985\nsg32\n(lp986\nI0\naI0\nasg34\nI12\nsba(i__main__\nDistrict\np987\n(dp988\ng9\n(lp989\nsg6\n(lp990\nF12.2\naF0.0\nasg8\nS\'Philadelphia\'\np991\nsg18\n(lp992\nF14.0\naF0.0\nasg28\n(lp993\nI0\naI0\nasg30\nS\'Pennsylvania\'\np994\nsg32\n(lp995\nI0\naI0\nasg34\nI18\nsba(i__main__\nDistrict\np996\n(dp997\ng9\n(lp998\nsg6\n(lp999\nF8.0\naF0.0\nasg8\nS\'Pittsburg\'\np1000\nsg18\n(lp1001\nF9.0\naF0.0\nasg28\n(lp1002\nI0\naI0\nasg30\nS\'Pennsylvania\'\np1003\nsg32\n(lp1004\nI0\naI0\nasg34\nI12\nsba(i__main__\nDistrict\np1005\n(dp1006\ng9\n(lp1007\nsg6\n(lp1008\nF12.2\naF0.0\nasg8\nS\'Northeast Pennsylvania\'\np1009\nsg18\n(lp1010\nF14.0\naF0.0\nasg28\n(lp1011\nI0\naI0\nasg30\nS\'Pennsylvania\'\np1012\nsg32\n(lp1013\nI0\naI0\nasg34\nI12\nsbasbsS\'Florida\'\np1014\n(i__main__\nState\np1015\n(dp1016\ng4\n(lp1017\nI2\naI0\nasg6\n(lp1018\nF100.0\naF0.0\nasg8\ng1014\nsg9\n(lp1019\nsg11\n(lp1020\ng850\nag850\nag850\nag850\naS\'9\\n\'\np1021\nasg18\n(lp1022\nF1986.0\naF0.0\nasg20\n(lp1023\n(i__main__\nDistrict\np1024\n(dp1025\ng9\n(lp1026\nsg6\n(lp1027\nF17.7\naF0.0\nasg8\nS\'The Panhandle\'\np1028\nsg18\n(lp1029\nF21.0\naF0.0\nasg28\n(lp1030\nI0\naI0\nasg30\nS\'Florida\'\np1031\nsg32\n(lp1032\nI0\naI0\nasg34\nI12\nsba(i__main__\nDistrict\np1033\n(dp1034\ng9\n(lp1035\nsg6\n(lp1036\nF17.7\naF0.0\nasg8\nS\'Jacksonville and Daytona Beach\'\np1037\nsg18\n(lp1038\nF21.0\naF0.0\nasg28\n(lp1039\nI0\naI0\nasg30\nS\'Florida\'\np1040\nsg32\n(lp1041\nI0\naI0\nasg34\nI9\nsba(i__main__\nDistrict\np1042\n(dp1043\ng9\n(lp1044\nsg6\n(lp1045\nF13.8\naF0.0\nasg8\nS\'Orlando and the mid-coast\'\np1046\nsg18\n(lp1047\nF16.0\naF0.0\nasg28\n(lp1048\nI0\naI0\nasg30\nS\'Florida\'\np1049\nsg32\n(lp1050\nI0\naI0\nasg34\nI12\nsba(i__main__\nDistrict\np1051\n(dp1052\ng9\n(lp1053\nsg6\n(lp1054\nF13.8\naF0.0\nasg8\nS\'Tampa and St. Petersburg\'\np1055\nsg18\n(lp1056\nF16.0\naF0.0\nasg28\n(lp1057\nI0\naI0\nasg30\nS\'Florida\'\np1058\nsg32\n(lp1059\nI0\naI0\nasg34\nI15\nsba(i__main__\nDistrict\np1060\n(dp1061\ng9\n(lp1062\nsg6\n(lp1063\nF31.6\naF0.0\nasg8\nS\'Miami and West Palm Beach\'\np1064\nsg18\n(lp1065\nF41.0\naF0.0\nasg28\n(lp1066\nI0\naI0\nasg30\nS\'Florida\'\np1067\nsg32\n(lp1068\nI0\naI0\nasg34\nI21\nsba(i__main__\nDistrict\np1069\n(dp1070\ng9\n(lp1071\nsg6\n(lp1072\nF17.7\naF0.0\nasg8\nS\'Southwest Florida\'\np1073\nsg18\n(lp1074\nF21.0\naF0.0\nasg28\n(lp1075\nI0\naI0\nasg30\nS\'Florida\'\np1076\nsg32\n(lp1077\nI0\naI0\nasg34\nI12\nsbasbsS\'Alaska\'\np1078\n(i__main__\nState\np1079\n(dp1080\ng4\n(lp1081\nI0\naI0\nasg6\n(lp1082\nF0.0\naF0.0\nasg8\ng1078\nsg9\n(lp1083\nsg11\n(lp1084\ng292\nag292\nag292\nag292\naS\'2\\n\'\np1085\nasg18\n(lp1086\nF0.0\naF0.0\nasg20\n(lp1087\n(i__main__\nDistrict\np1088\n(dp1089\ng9\n(lp1090\nsg6\n(lp1091\nF0.0\naF0.0\nasg8\nS\'1st\'\np1092\nsg18\n(lp1093\nF0.0\naF0.0\nasg28\n(lp1094\nI0\naI0\nasg30\nS\'Alaska\'\np1095\nsg32\n(lp1096\nI0\naI0\nasg34\nI3\nsbasbsS\'Kentucky\'\np1097\n(i__main__\nState\np1098\n(dp1099\ng4\n(lp1100\nI0\naI0\nasg6\n(lp1101\nF0.0\naF0.0\nasg8\ng1097\nsg9\n(lp1102\nsg11\n(lp1103\ng400\nag400\nag400\nag400\naS\'3\\n\'\np1104\nasg18\n(lp1105\nF0.0\naF0.0\nasg20\n(lp1106\n(i__main__\nDistrict\np1107\n(dp1108\ng9\n(lp1109\nsg6\n(lp1110\nF0.0\naF0.0\nasg8\nS\'Louisville and Lexington\'\np1111\nsg18\n(lp1112\nF0.0\naF0.0\nasg28\n(lp1113\nI0\naI0\nasg30\nS\'Kentucky\'\np1114\nsg32\n(lp1115\nI0\naI0\nasg34\nI9\nsba(i__main__\nDistrict\np1116\n(dp1117\ng9\n(lp1118\nsg6\n(lp1119\nF0.0\naF0.0\nasg8\nS\'Southern Kentucky\'\np1120\nsg18\n(lp1121\nF0.0\naF0.0\nasg28\n(lp1122\nI0\naI0\nasg30\nS\'Kentucky\'\np1123\nsg32\n(lp1124\nI0\naI0\nasg34\nI9\nsbasbsS\'Hawaii\'\np1125\n(i__main__\nState\np1126\n(dp1127\ng4\n(lp1128\nI0\naI0\nasg6\n(lp1129\nF0.0\naF0.0\nasg8\ng1125\nsg9\n(lp1130\nsg11\n(lp1131\ng850\nag850\nag850\nag850\naS\'9\\n\'\np1132\nasg18\n(lp1133\nF0.0\naF0.0\nasg20\n(lp1134\n(i__main__\nDistrict\np1135\n(dp1136\ng9\n(lp1137\nsg6\n(lp1138\nF0.0\naF0.0\nasg8\nS\'1st\'\np1139\nsg18\n(lp1140\nF0.0\naF0.0\nasg28\n(lp1141\nI0\naI0\nasg30\nS\'Hawaii\'\np1142\nsg32\n(lp1143\nI0\naI0\nasg34\nI6\nsbasbsS\'Nebraska\'\np1144\n(i__main__\nState\np1145\n(dp1146\ng4\n(lp1147\nI0\naI0\nasg6\n(lp1148\nF0.0\naF0.0\nasg8\ng1144\nsg9\n(lp1149\nsg11\n(lp1150\nS\'-7\'\np1151\naS\'-7\'\np1152\naS\'-7\'\np1153\naS\'-7\'\np1154\naS\'-7\\n\'\np1155\nasg18\n(lp1156\nF0.0\naF0.0\nasg20\n(lp1157\n(i__main__\nDistrict\np1158\n(dp1159\ng9\n(lp1160\nsg6\n(lp1161\nF0.0\naF0.0\nasg8\nS\'1st\'\np1162\nsg18\n(lp1163\nF0.0\naF0.0\nasg28\n(lp1164\nI0\naI0\nasg30\nS\'Nebraska\'\np1165\nsg32\n(lp1166\nI0\naI0\nasg34\nI9\nsbasbsS\'Missouri\'\np1167\n(i__main__\nState\np1168\n(dp1169\ng4\n(lp1170\nI0\naI0\nasg6\n(lp1171\nF0.0\naF0.0\nasg8\ng1167\nsg9\n(lp1172\nsg11\n(lp1173\nS\'-5\'\np1174\naS\'-5\'\np1175\naS\'-5\'\np1176\naS\'-5\'\np1177\naS\'-5\\n\'\np1178\nasg18\n(lp1179\nF0.0\naF0.0\nasg20\n(lp1180\n(i__main__\nDistrict\np1181\n(dp1182\ng9\n(lp1183\nsg6\n(lp1184\nF0.0\naF0.0\nasg8\nS\'Kansas City and Northern Missouri\'\np1185\nsg18\n(lp1186\nF0.0\naF0.0\nasg28\n(lp1187\nI0\naI0\nasg30\nS\'Missouri\'\np1188\nsg32\n(lp1189\nI0\naI0\nasg34\nI6\nsba(i__main__\nDistrict\np1190\n(dp1191\ng9\n(lp1192\nsg6\n(lp1193\nF0.0\naF0.0\nasg8\nS\'Southern Missouri\'\np1194\nsg18\n(lp1195\nF0.0\naF0.0\nasg28\n(lp1196\nI0\naI0\nasg30\nS\'Missouri\'\np1197\nsg32\n(lp1198\nI0\naI0\nasg34\nI9\nsba(i__main__\nDistrict\np1199\n(dp1200\ng9\n(lp1201\nsg6\n(lp1202\nF0.0\naF0.0\nasg8\nS\'St. Louis\'\np1203\nsg18\n(lp1204\nF0.0\naF0.0\nasg28\n(lp1205\nI0\naI0\nasg30\nS\'Missouri\'\np1206\nsg32\n(lp1207\nI0\naI0\nasg34\nI9\nsbasbsS\'Ohio\'\np1208\n(i__main__\nState\np1209\n(dp1210\ng4\n(lp1211\nI0\naI0\nasg6\n(lp1212\nF0.0\naF0.0\nasg8\ng1208\nsg9\n(lp1213\nsg11\n(lp1214\nS\'-5\'\np1215\naS\'-5\'\np1216\naS\'-5\'\np1217\naS\'-5\'\np1218\naS\'-5\\n\'\np1219\nasg18\n(lp1220\nF0.0\naF0.0\nasg20\n(lp1221\n(i__main__\nDistrict\np1222\n(dp1223\ng9\n(lp1224\nsg6\n(lp1225\nF0.0\naF0.0\nasg8\nS\'Toledo and the Northwest\'\np1226\nsg18\n(lp1227\nF0.0\naF0.0\nasg28\n(lp1228\nI0\naI0\nasg30\nS\'Ohio\'\np1229\nsg32\n(lp1230\nI0\naI0\nasg34\nI9\nsba(i__main__\nDistrict\np1231\n(dp1232\ng9\n(lp1233\nsg6\n(lp1234\nF0.0\naF0.0\nasg8\nS\'Cleveland and the Northeast\'\np1235\nsg18\n(lp1236\nF0.0\naF0.0\nasg28\n(lp1237\nI0\naI0\nasg30\nS\'Ohio\'\np1238\nsg32\n(lp1239\nI0\naI0\nasg34\nI15\nsba(i__main__\nDistrict\np1240\n(dp1241\ng9\n(lp1242\nsg6\n(lp1243\nF0.0\naF0.0\nasg8\nS\'Columbus and the Southeast\'\np1244\nsg18\n(lp1245\nF0.0\naF0.0\nasg28\n(lp1246\nI0\naI0\nasg30\nS\'Ohio\'\np1247\nsg32\n(lp1248\nI0\naI0\nasg34\nI12\nsba(i__main__\nDistrict\np1249\n(dp1250\ng9\n(lp1251\nsg6\n(lp1252\nF0.0\naF0.0\nasg8\nS\'Cincinnati and Dayton\'\np1253\nsg18\n(lp1254\nF0.0\naF0.0\nasg28\n(lp1255\nI0\naI0\nasg30\nS\'Ohio\'\np1256\nsg32\n(lp1257\nI0\naI0\nasg34\nI12\nsbasbsS\'Alabama\'\np1258\n(i__main__\nState\np1259\n(dp1260\ng4\n(lp1261\nI0\naI2\nasg6\n(lp1262\nF0.0\naF100.0\nasg8\ng1258\nsg9\n(lp1263\nsg11\n(lp1264\nS\'1\'\np1265\nag1265\nag1265\nag1265\naS\'1\\n\'\np1266\nasg18\n(lp1267\nF0.0\naF147.0\nasg20\n(lp1268\n(i__main__\nDistrict\np1269\n(dp1270\ng9\n(lp1271\nsg6\n(lp1272\nF0.0\naF3.6\nasg8\nS\'Northern Alabama\'\np1273\nsg18\n(lp1274\nF0.0\naF4.0\nasg28\n(lp1275\nI0\naI0\nasg30\nS\'Alabama\'\np1276\nsg32\n(lp1277\nI0\naI0\nasg34\nI6\nsba(i__main__\nDistrict\np1278\n(dp1279\ng9\n(lp1280\nsg6\n(lp1281\nF0.0\naF9.7\nasg8\nS\'Central Alabama\'\np1282\nsg18\n(lp1283\nF0.0\naF11.0\nasg28\n(lp1284\nI0\naI0\nasg30\nS\'Alabama\'\np1285\nsg32\n(lp1286\nI0\naI0\nasg34\nI9\nsba(i__main__\nDistrict\np1287\n(dp1288\ng9\n(lp1289\nsg6\n(lp1290\nF0.0\naF3.6\nasg8\nS\'Southern Alabama\'\np1291\nsg18\n(lp1292\nF0.0\naF4.0\nasg28\n(lp1293\nI0\naI0\nasg30\nS\'Alabama\'\np1294\nsg32\n(lp1295\nI0\naI0\nasg34\nI6\nsbasbsS\'Rhode Island\'\np1296\n(i__main__\nState\np1297\n(dp1298\ng4\n(lp1299\nI0\naI0\nasg6\n(lp1300\nF0.0\naF0.0\nasg8\ng1296\nsg9\n(lp1301\nsg11\n(lp1302\nS\'-1\'\np1303\naS\'-1\'\np1304\naS\'-1\'\np1305\naS\'-1\'\np1306\naS\'-1\\n\'\np1307\nasg18\n(lp1308\nF0.0\naF0.0\nasg20\n(lp1309\n(i__main__\nDistrict\np1310\n(dp1311\ng9\n(lp1312\nsg6\n(lp1313\nF0.0\naF0.0\nasg8\nS\'1st\'\np1314\nsg18\n(lp1315\nF0.0\naF0.0\nasg28\n(lp1316\nI0\naI0\nasg30\nS\'Rhode Island\'\np1317\nsg32\n(lp1318\nI0\naI0\nasg34\nI6\nsbasbsS\'South Dakota\'\np1319\n(i__main__\nState\np1320\n(dp1321\ng4\n(lp1322\nI0\naI0\nasg6\n(lp1323\nF0.0\naF0.0\nasg8\ng1319\nsg9\n(lp1324\nsg11\n(lp1325\ng1265\nag1265\nag1265\nag1265\naS\'1\\n\'\np1326\nasg18\n(lp1327\nF0.0\naF0.0\nasg20\n(lp1328\n(i__main__\nDistrict\np1329\n(dp1330\ng9\n(lp1331\nsg6\n(lp1332\nF0.0\naF0.0\nasg8\nS\'1st\'\np1333\nsg18\n(lp1334\nF0.0\naF0.0\nasg28\n(lp1335\nI0\naI0\nasg30\nS\'South Dakota\'\np1336\nsg32\n(lp1337\nI0\naI0\nasg34\nI3\nsbasbsS\'Colorado\'\np1338\n(i__main__\nState\np1339\n(dp1340\ng4\n(lp1341\nI0\naI1\nasg6\n(lp1342\nF0.0\naF100.0\nasg8\ng1338\nsg9\n(lp1343\nsg11\n(lp1344\ng216\nag216\nag216\nag216\naS\'6\\n\'\np1345\nasg18\n(lp1346\nF0.0\naF162.0\nasg20\n(lp1347\n(i__main__\nDistrict\np1348\n(dp1349\ng9\n(lp1350\nsg6\n(lp1351\nF0.0\naF10.5\nasg8\nS\'Denver and the Northern Front Range\'\np1352\nsg18\n(lp1353\nF0.0\naF12.0\nasg28\n(lp1354\nI0\naI0\nasg30\nS\'Colorado\'\np1355\nsg32\n(lp1356\nI0\naI0\nasg34\nI12\nsba(i__main__\nDistrict\np1357\n(dp1358\ng9\n(lp1359\nsg6\n(lp1360\nF0.0\naF1.8\nasg8\nS\'The Rest of Colorado\'\np1361\nsg18\n(lp1362\nF0.0\naF2.0\nasg28\n(lp1363\nI0\naI0\nasg30\nS\'Colorado\'\np1364\nsg32\n(lp1365\nI0\naI0\nasg34\nI9\nsbasbsS\'New Jersey\'\np1366\n(i__main__\nState\np1367\n(dp1368\ng4\n(lp1369\nI0\naI0\nasg6\n(lp1370\nF0.0\naF0.0\nasg8\ng1366\nsg9\n(lp1371\nsg11\n(lp1372\nS\'-10\'\np1373\naS\'-10\'\np1374\naS\'-10\'\np1375\naS\'-10\'\np1376\naS\'-10\\n\'\np1377\nasg18\n(lp1378\nF0.0\naF0.0\nasg20\n(lp1379\n(i__main__\nDistrict\np1380\n(dp1381\ng9\n(lp1382\nsg6\n(lp1383\nF0.0\naF0.0\nasg8\nS\'Newark\'\np1384\nsg18\n(lp1385\nF0.0\naF0.0\nasg28\n(lp1386\nI0\naI0\nasg30\nS\'New Jersey\'\np1387\nsg32\n(lp1388\nI0\naI0\nasg34\nI15\nsba(i__main__\nDistrict\np1389\n(dp1390\ng9\n(lp1391\nsg6\n(lp1392\nF0.0\naF0.0\nasg8\nS\'Cental New Jersey\'\np1393\nsg18\n(lp1394\nF0.0\naF0.0\nasg28\n(lp1395\nI0\naI0\nasg30\nS\'New Jersey\'\np1396\nsg32\n(lp1397\nI0\naI0\nasg34\nI12\nsba(i__main__\nDistrict\np1398\n(dp1399\ng9\n(lp1400\nsg6\n(lp1401\nF0.0\naF0.0\nasg8\nS\'Southern New Jersey\'\np1402\nsg18\n(lp1403\nF0.0\naF0.0\nasg28\n(lp1404\nI0\naI0\nasg30\nS\'New Jersey\'\np1405\nsg32\n(lp1406\nI0\naI0\nasg34\nI9\nsbasbsS\'Washington\'\np1407\n(i__main__\nState\np1408\n(dp1409\ng4\n(lp1410\nI0\naI0\nasg6\n(lp1411\nF0.0\naF0.0\nasg8\ng1407\nsg9\n(lp1412\nsg11\n(lp1413\ng126\nag126\nag126\nag126\naS\'7\\n\'\np1414\nasg18\n(lp1415\nF0.0\naF0.0\nasg20\n(lp1416\n(i__main__\nDistrict\np1417\n(dp1418\ng9\n(lp1419\nsg6\n(lp1420\nF0.0\naF0.0\nasg8\nS\'Seattle\'\np1421\nsg18\n(lp1422\nF0.0\naF0.0\nasg28\n(lp1423\nI0\naI0\nasg30\nS\'Washington\'\np1424\nsg32\n(lp1425\nI0\naI0\nasg34\nI15\nsba(i__main__\nDistrict\np1426\n(dp1427\ng9\n(lp1428\nsg6\n(lp1429\nF0.0\naF0.0\nasg8\nS\'Central Washington\'\np1430\nsg18\n(lp1431\nF0.0\naF0.0\nasg28\n(lp1432\nI0\naI0\nasg30\nS\'Washington\'\np1433\nsg32\n(lp1434\nI0\naI0\nasg34\nI9\nsba(i__main__\nDistrict\np1435\n(dp1436\ng9\n(lp1437\nsg6\n(lp1438\nF0.0\naF0.0\nasg8\nS\'Eastern Washington\'\np1439\nsg18\n(lp1440\nF0.0\naF0.0\nasg28\n(lp1441\nI0\naI0\nasg30\nS\'Washington\'\np1442\nsg32\n(lp1443\nI0\naI0\nasg34\nI6\nsbasbsS\'North Carolina\'\np1444\n(i__main__\nState\np1445\n(dp1446\ng4\n(lp1447\nI0\naI0\nasg6\n(lp1448\nF0.0\naF0.0\nasg8\ng1444\nsg9\n(lp1449\nsg11\n(lp1450\nS\'-7\'\np1451\naS\'-7\'\np1452\naS\'-7\'\np1453\naS\'-7\'\np1454\naS\'-7\\n\'\np1455\nasg18\n(lp1456\nF0.0\naF0.0\nasg20\n(lp1457\n(i__main__\nDistrict\np1458\n(dp1459\ng9\n(lp1460\nsg6\n(lp1461\nF0.0\naF0.0\nasg8\nS\'Western North Carolina\'\np1462\nsg18\n(lp1463\nF0.0\naF0.0\nasg28\n(lp1464\nI0\naI0\nasg30\nS\'North Carolina\'\np1465\nsg32\n(lp1466\nI0\naI0\nasg34\nI9\nsba(i__main__\nDistrict\np1467\n(dp1468\ng9\n(lp1469\nsg6\n(lp1470\nF0.0\naF0.0\nasg8\nS\'Raleigh-Durham\'\np1471\nsg18\n(lp1472\nF0.0\naF0.0\nasg28\n(lp1473\nI0\naI0\nasg30\nS\'North Carolina\'\np1474\nsg32\n(lp1475\nI0\naI0\nasg34\nI12\nsba(i__main__\nDistrict\np1476\n(dp1477\ng9\n(lp1478\nsg6\n(lp1479\nF0.0\naF0.0\nasg8\nS\'Charlotte\'\np1480\nsg18\n(lp1481\nF0.0\naF0.0\nasg28\n(lp1482\nI0\naI0\nasg30\nS\'North Carolina\'\np1483\nsg32\n(lp1484\nI0\naI0\nasg34\nI9\nsba(i__main__\nDistrict\np1485\n(dp1486\ng9\n(lp1487\nsg6\n(lp1488\nF0.0\naF0.0\nasg8\nS\'The Coast\'\np1489\nsg18\n(lp1490\nF0.0\naF0.0\nasg28\n(lp1491\nI0\naI0\nasg30\nS\'North Carolina\'\np1492\nsg32\n(lp1493\nI0\naI0\nasg34\nI9\nsbasbsS\'New York\'\np1494\n(i__main__\nState\np1495\n(dp1496\ng4\n(lp1497\nI2\naI0\nasg6\n(lp1498\nF100.0\naF0.0\nasg8\ng1494\nsg9\n(lp1499\nsg11\n(lp1500\nS\'-8\'\np1501\naS\'-8\'\np1502\naS\'-8\'\np1503\naS\'-8\'\np1504\naS\'-8\\n\'\np1505\nasg18\n(lp1506\nF816.0\naF0.0\nasg20\n(lp1507\n(i__main__\nDistrict\np1508\n(dp1509\ng9\n(lp1510\nsg6\n(lp1511\nF13.8\naF0.0\nasg8\nS\'New York\'\np1512\nsg18\n(lp1513\nF16.0\naF0.0\nasg28\n(lp1514\nI0\naI0\nasg30\nS\'New York\'\np1515\nsg32\n(lp1516\nI0\naI0\nasg34\nI33\nsba(i__main__\nDistrict\np1517\n(dp1518\ng9\n(lp1519\nsg6\n(lp1520\nF5.4\naF0.0\nasg8\nS\'Long Island\'\np1521\nsg18\n(lp1522\nF6.0\naF0.0\nasg28\n(lp1523\nI0\naI0\nasg30\nS\'New York\'\np1524\nsg32\n(lp1525\nI0\naI0\nasg34\nI12\nsba(i__main__\nDistrict\np1526\n(dp1527\ng9\n(lp1528\nsg6\n(lp1529\nF5.4\naF0.0\nasg8\nS\'Hudson Valley\'\np1530\nsg18\n(lp1531\nF6.0\naF0.0\nasg28\n(lp1532\nI0\naI0\nasg30\nS\'New York\'\np1533\nsg32\n(lp1534\nI0\naI0\nasg34\nI15\nsba(i__main__\nDistrict\np1535\n(dp1536\ng9\n(lp1537\nsg6\n(lp1538\nF5.4\naF0.0\nasg8\nS\'Upstate\'\np1539\nsg18\n(lp1540\nF6.0\naF0.0\nasg28\n(lp1541\nI0\naI0\nasg30\nS\'New York\'\np1542\nsg32\n(lp1543\nI0\naI0\nasg34\nI12\nsba(i__main__\nDistrict\np1544\n(dp1545\ng9\n(lp1546\nsg6\n(lp1547\nF5.4\naF0.0\nasg8\nS\'Buffalo and Rochester\'\np1548\nsg18\n(lp1549\nF6.0\naF0.0\nasg28\n(lp1550\nI0\naI0\nasg30\nS\'New York\'\np1551\nsg32\n(lp1552\nI0\naI0\nasg34\nI9\nsbasbsS\'Texas\'\np1553\n(i__main__\nState\np1554\n(dp1555\ng4\n(lp1556\nI4\naI2\nasg6\n(lp1557\nF49.6\naF50.4\nasg8\ng1553\nsg9\n(lp1558\nsg11\n(lp1559\ng400\nag400\nag400\nag400\naS\'3\\n\'\np1560\nasg18\n(lp1561\nF1602.0\naF1635.0\nasg20\n(lp1562\n(i__main__\nDistrict\np1563\n(dp1564\ng9\n(lp1565\nsg6\n(lp1566\nF7.7\naF8.5\nasg8\nS\'West Texas\'\np1567\nsg18\n(lp1568\nF9.0\naF10.0\nasg28\n(lp1569\nI0\naI0\nasg30\nS\'Texas\'\np1570\nsg32\n(lp1571\nI0\naI0\nasg34\nI15\nsba(i__main__\nDistrict\np1572\n(dp1573\ng9\n(lp1574\nsg6\n(lp1575\nF7.7\naF8.5\nasg8\nS\'South Texas\'\np1576\nsg18\n(lp1577\nF9.0\naF10.0\nasg28\n(lp1578\nI0\naI0\nasg30\nS\'Texas\'\np1579\nsg32\n(lp1580\nI0\naI0\nasg34\nI12\nsba(i__main__\nDistrict\np1581\n(dp1582\ng9\n(lp1583\nsg6\n(lp1584\nF7.5\naF12.5\nasg8\nS\'East Texas\'\np1585\nsg18\n(lp1586\nF9.0\naF15.0\nasg28\n(lp1587\nI0\naI0\nasg30\nS\'Texas\'\np1588\nsg32\n(lp1589\nI0\naI0\nasg34\nI18\nsba(i__main__\nDistrict\np1590\n(dp1591\ng9\n(lp1592\nsg6\n(lp1593\nF15.1\naF13.4\nasg8\nS\'Houston\'\np1594\nsg18\n(lp1595\nF19.0\naF17.0\nasg28\n(lp1596\nI0\naI0\nasg30\nS\'Texas\'\np1597\nsg32\n(lp1598\nI0\naI0\nasg34\nI24\nsba(i__main__\nDistrict\np1599\n(dp1600\ng9\n(lp1601\nsg6\n(lp1602\nF15.0\naF14.1\nasg8\nS\'Dallas-Fort Worth\'\np1603\nsg18\n(lp1604\nF19.0\naF18.0\nasg28\n(lp1605\nI0\naI0\nasg30\nS\'Texas\'\np1606\nsg32\n(lp1607\nI0\naI0\nasg34\nI24\nsba(i__main__\nDistrict\np1608\n(dp1609\ng9\n(lp1610\nsg6\n(lp1611\nF15.1\naF13.4\nasg8\nS\'San Antonio and Austin\'\np1612\nsg18\n(lp1613\nF19.0\naF17.0\nasg28\n(lp1614\nI0\naI0\nasg30\nS\'Texas\'\np1615\nsg32\n(lp1616\nI0\naI0\nasg34\nI15\nsbasbsS\'Nevada\'\np1617\n(i__main__\nState\np1618\n(dp1619\ng4\n(lp1620\nI0\naI2\nasg6\n(lp1621\nF0.0\naF100.0\nasg8\ng1617\nsg9\n(lp1622\nsg11\n(lp1623\nS\'-8\'\np1624\naS\'-8\'\np1625\naS\'-8\'\np1626\naS\'-8\'\np1627\naS\'-8\\n\'\np1628\nasg18\n(lp1629\nF0.0\naF72.0\nasg20\n(lp1630\n(i__main__\nDistrict\np1631\n(dp1632\ng9\n(lp1633\nsg6\n(lp1634\nF0.0\naF5.4\nasg8\nS\'1st\'\np1635\nsg18\n(lp1636\nF0.0\naF6.0\nasg28\n(lp1637\nI0\naI0\nasg30\nS\'Nevada\'\np1638\nsg32\n(lp1639\nI0\naI0\nasg34\nI12\nsbasbsS\'Maine\'\np1640\n(i__main__\nState\np1641\n(dp1642\ng4\n(lp1643\nI0\naI0\nasg6\n(lp1644\nF0.0\naF0.0\nasg8\ng1640\nsg9\n(lp1645\nsg11\n(lp1646\ng1265\nag1265\nag1265\nag1265\naS\'1\\n\'\np1647\nasg18\n(lp1648\nF0.0\naF0.0\nasg20\n(lp1649\n(i__main__\nDistrict\np1650\n(dp1651\ng9\n(lp1652\nsg6\n(lp1653\nF0.0\naF0.0\nasg8\nS\'1st\'\np1654\nsg18\n(lp1655\nF0.0\naF0.0\nasg28\n(lp1656\nI0\naI0\nasg30\nS\'Maine\'\np1657\nsg32\n(lp1658\nI0\naI0\nasg34\nI6\nsbasbs.'
p2
aS'(dp0\n.'
p3
aS'I1\n.'
p4
aS'I4\n.'
p5
a.